(dp1
S'output'
p2
S"<type 'exceptions.AttributeError'> 'Cache' object has no attribute 'action'"
p3
sS'layer'
p4
S'/home/vanshika/vanshu/c pro/itws/itws2/web2py/applications/NOUVELLES_EN_LIGNE/controllers/default.py'
p5
sS'code'
p6
S'# -*- coding: utf-8 -*-\n# this file is released under public domain and you can use without limitations\n\n#########################################################################\n## This is a sample controller\n## - index is the default action of any application\n## - user is required for authentication and authorization\n## - download is for downloading files uploaded in the db (does streaming)\n## - call exposes all registered services (none by default)\n#########################################################################\n\n\ndef index1():\n    """\n    example action using the internationalization operator T and flash\n    rendered by views/default/index.html or views/generic.html\n\n    if you need a simple wiki simple replace the two lines below with:\n    return auth.wiki()\n    """\n    return dict(message=T(\'Hello World\'))\n\n\ndef user():\n    """\n    exposes:\n    http://..../[app]/default/user/login\n    http://..../[app]/default/user/logout\n    http://..../[app]/default/user/register\n    http://..../[app]/default/user/profile\n    http://..../[app]/default/user/retrieve_password\n    http://..../[app]/default/user/change_password\n    http://..../[app]/default/user/manage_users (requires membership in \n    use @auth.requires_login()\n        @auth.requires_membership(\'group name\')\n        @auth.requires_permission(\'read\',\'table name\',record_id)\n    to decorate functions that need access control\n    """\n    return dict(form=auth())\n\n@cache.action()\ndef download():\n    """\n    allows downloading of uploaded files\n    http://..../[app]/default/download/[filename]\n    """\n    return response.download(request, db)\n\n\ndef call():\n    """\n    exposes services. for example:\n    http://..../[app]/default/call/jsonrpc\n    decorate with @services.jsonrpc the functions to expose\n    supports xml, json, xmlrpc, jsonrpc, amfrpc, rss, csv\n    """\n    return service()\n\n\n@auth.requires_signature()\ndef data():\n    """\n    http://..../[app]/default/data/tables\n    http://..../[app]/default/data/create/[table]\n    http://..../[app]/default/data/read/[table]/[id]\n    http://..../[app]/default/data/update/[table]/[id]\n    http://..../[app]/default/data/delete/[table]/[id]\n    http://..../[app]/default/data/select/[table]\n    http://..../[app]/default/data/search/[table]\n    but URLs must be signed, i.e. linked with\n      A(\'table\',_href=URL(\'data/tables\',user_signature=True))\n    or with the signed load operator\n      LOAD(\'default\',\'data.load\',args=\'tables\',ajax=True,user_signature=True)\n    """\n    return dict(form=crud())\nimport datetime\ndef index():\n\ta=db(db.news.id > 0).select(db.news.ALL,orderby=~db.news.ranks)\n    \tresponse.flash = T("Welcome to NOUVELLES_EN_LIGNE")\n\ty=[]\n\tt=[]\n\tm1 = db(db.category.id > 0).select(db.category.ALL)\n\tfor k in m1:\n\t\tw=k.name\n\t\tt.append(w)\n#for k in m1:\n#\t\tt.append(k.name)\n\tfor k in a:\n\t\tx={}\n\t\tid2 = k[\'posted_by\']\n\t\tc = db((db.news.posted_by == id2) & (db.auth_user.id == db.news.posted_by)).select(db.auth_user.ALL)[0]\n\t\tid1=k[\'Category\']\n\t\tb=db((db.news.Category == id1) & (db.category.id == db.news.Category)).select(db.category.ALL)[0]\n\t\tx[\'Head\']=k[\'Heading\']\n\t\tx[\'Cat\']=b[\'name\']\n\t\tx[\'dislikes\']=str(k[\'dislikes\'])\n\t\tx[\'id\']=k[\'id\']\n\t\tx[\'Des\']=k[\'Description\']\n\t\tx[\'By\']=str(c[\'first_name\'])+" " +str(c[\'last_name\'])\n\t\tx[\'On\']=k[\'posted_on\']\n\t\tx[\'likes\']=str(k[\'likes\'])\n\t\tx[\'url\']=k[\'Url\']\n\t\tif k[\'video\']!=None and k[\'video\']!="":\n\t\t\tx[\'video\']="http://www.youtube.com/embed/"+(str(k[\'video\']).split("="))[1]\n\t\telse:\n\t\t\tx[\'video\']=k[\'video\']\n\t\ty.append(x)\n\t\t\n\treturn locals()\ndef admin_catgry():\n\ta=db(db.category.id > 0).select(db.category.ALL)\n\tt=[]\n\tfor k in a:\n\t\tw=k.name\n\t\tt.append(w)\n\tfor k in a:\n\t\tprint request.args(0)\n\t\tif k[\'name\']==request.args(0):\n\t\t\tz=k[\'id\']\n\t\t\ty=[]\n\t\t\tc=db((db.category.id == z)&(db.news.Category==db.category.id)).select(db.news.ALL,orderby=~db.news.ranks)\n\t\t\tfor w in c:\n\t\t\t\tx={}\n\t\t\t\tid2 = w[\'posted_by\']\n\t\t\t\tc1 = db((db.news.posted_by == id2) & (db.auth_user.id == db.news.posted_by)).select(db.auth_user.ALL)[0]\n\t\t\t\tx[\'Head\']=w[\'Heading\']\n\t\t\t\tx[\'Cat\']=k[\'name\']\n\t\t\t\tx[\'Des\']=w[\'Description\']\n\t\t\t\tx[\'By\']=str(c1[\'first_name\'])+" " +str(c1[\'last_name\'])\n\t\t\t\tx[\'On\']=w[\'posted_on\']\n\t\t\t\tx[\'likes\']=str(w[\'likes\'])\n\t\t\t\tx[\'dislikes\']=str(w[\'dislikes\'])\n\t\t\t\tx[\'url\']=w[\'Url\']\n\t\t\t\tif w[\'video\']!=None and w[\'video\']!="":\n\t\t\t\t\tx[\'video\']="http://www.youtube.com/embed/"+(str(w[\'video\']).split("="))[1]\n\t\t\t\telse:\n\t\t\t\t\tx[\'video\']=w[\'video\']\n\t\t\t\tx[\'id\']=w[\'id\']\n\t\t\t\ty.append(x)\n\n\treturn locals()\ndef catgry():\n\ta=db(db.category.id > 0).select(db.category.ALL)\n\tt=[]\n\tfor k in a:\n\t\tw=k.name\n\t\tt.append(w)\n\tfor k in a:\n\t\tprint request.args(0)\n\t\tif k[\'name\']==request.args(0):\n\t\t\tz=k[\'id\']\n\t\t\ty=[]\n\t\t\tc=db((db.category.id == z)&(db.news.Category==db.category.id)).select(db.news.ALL,orderby=~db.news.ranks)\n\t\t\tfor w in c:\n\t\t\t\tx={}\n\t\t\t\tid2 = w[\'posted_by\']\n\t\t\t\tc1 = db((db.news.posted_by == id2) & (db.auth_user.id == db.news.posted_by)).select(db.auth_user.ALL)[0]\n\t\t\t\tx[\'Head\']=w[\'Heading\']\n\t\t\t\tx[\'Cat\']=k[\'name\']\n\t\t\t\tx[\'Des\']=w[\'Description\']\n\t\t\t\tx[\'By\']=str(c1[\'first_name\'])+" " +str(c1[\'last_name\'])\n\t\t\t\tx[\'On\']=w[\'posted_on\']\n\t\t\t\tx[\'likes\']=str(w[\'likes\'])\n\t\t\t\tx[\'dislikes\']=str(w[\'dislikes\'])\n\t\t\t\tx[\'url\']=w[\'Url\']\n\t\t\t\tif w[\'video\']!=None and w[\'video\']!="":\n\t\t\t\t\tx[\'video\']="http://www.youtube.com/embed/"+(str(w[\'video\']).split("="))[1]\n\t\t\t\telse:\n\t\t\t\t\tx[\'video\']=w[\'video\']\n\t\t\t\tx[\'id\']=w[\'id\']\n\t\t\t\ty.append(x)\n\n\treturn locals()\n@auth.requires_login()\t\ndef ad_post():\n#\tdb.news.likes.writable=db.news.likes.readable=False\n#idb.news.cmmnt.writable=db.news.cmmnt.readable=False\n\tdb.news.posted_on.readable=db.news.posted_on.writable=False\n\tdb.news.likes.readable=db.news.likes.writable=False\n\tdb.news.dislikes.readable=db.news.dislikes.writable=False\n\tdb.news.ranks.readable=db.news.ranks.writable=False\n\tusr=db(db.auth_user.id==auth.user_id).select(db.auth_user.ALL)[0]\n\tdb.news.posted_by.default=usr[\'id\']\n\tdb.news.posted_by.readable=db.news.posted_by.writable=False\n\tdb.LD.new_id.default=db.news.id\n\tdb.news.likes.readable=db.news.likes.writable=False\n\tform=SQLFORM(db.news)\n\tif form.process().accepted:\n\t\tsession.flash=\'Your post is successful\'\n\t\tredirect(URL(r=request,f=\'index\'))\n\telif form.errors:\n\t\tsession.flash=\'Error in posting\'\n\treturn locals()\n@auth.requires_login()\t\ndef post():\n#\tdb.news.likes.writable=db.news.likes.readable=False\n#idb.news.cmmnt.writable=db.news.cmmnt.readable=False\n\tdb.news.posted_on.readable=db.news.posted_on.writable=False\n\tdb.news.likes.readable=db.news.likes.writable=False\n\tdb.news.dislikes.readable=db.news.dislikes.writable=False\n\tdb.news.ranks.readable=db.news.ranks.writable=False\n\tusr=db(db.auth_user.id==auth.user_id).select(db.auth_user.ALL)[0]\n\tdb.news.posted_by.default=usr[\'id\']\n\tdb.news.posted_by.readable=db.news.posted_by.writable=False\n\tdb.LD.new_id.default=db.news.id\n\tdb.news.likes.readable=db.news.likes.writable=False\n\tform=SQLFORM(db.news)\n\tif form.process().accepted:\n\t\tsession.flash=\'Your post is successful\'\n\t\tredirect(URL(r=request,f=\'index\'))\n\telif form.errors:\n\t\tsession.flash=\'Error in posting\'\n\treturn locals()\ndef add_view():\n\tid1=request.args(0)\n\ta1=db(db.category.id > 0).select(db.category.ALL)\n\tt=[]\n\tfor k in a1:\n\t\tw=k.name\n\t\tt.append(w)\n\ta=db((db.comments.id>0)&(db.comments.new_id==id1)).select(db.comments.ALL)\n\tb=db(db.news.id==id1).select(db.news.ALL)[0]\n\tp=db((db.category.id==db.news.Category)&(db.news.id==id1)).select(db.category.ALL)[0]\n\tm={}\n\tm[\'Head\']=b.Heading\n\tm[\'on\']=b.posted_on\n\tm[\'Cat\']=p.name\n\tm[\'by\']=b.posted_by\n\tm[\'Des\']=b.Description\n\tm[\'url\']=b.Url\n\tm[\'id\']=b.id\n\tm[\'likes\']=b.likes\n\tif b.video!=None and b.video!="":\n\t\t\tm[\'video\']="http://www.youtube.com/embed/"+(str(b.video).split("="))[1]\n\telse:\n\t\t\tm[\'video\']=b.video\n\tm[\'dislikes\']=b.dislikes\n\ty=[]\n\tfor k in a:\n\t\tx={}\n\t\ts=db(db.auth_user.id==k[\'commented_by\']).select(db.auth_user.ALL)[0]\n\t\tx[\'body\']=k[\'body\']\n\t\tx[\'on\']=k[\'commented_on\']\n\t\tx[\'by\']=str(s.first_name)+" "+str(s.last_name)\n\t\ty.append(x)\n\tz1=[]\n\tz1.append(m)\n\treturn locals()\ndef view():\n\tid1=request.args(0)\n\ta1=db(db.category.id > 0).select(db.category.ALL)\n\tt=[]\n\tfor k in a1:\n\t\tw=k.name\n\t\tt.append(w)\n\ta=db((db.comments.id>0)&(db.comments.new_id==id1)).select(db.comments.ALL)\n\tb=db(db.news.id==id1).select(db.news.ALL)[0]\n\tp=db((db.category.id==db.news.Category)&(db.news.id==id1)).select(db.category.ALL)[0]\n\tm={}\n\tm[\'Head\']=b.Heading\n\tm[\'on\']=b.posted_on\n\tm[\'Cat\']=p.name\n\tm[\'by\']=b.posted_by\n\tm[\'Des\']=b.Description\n\tm[\'url\']=b.Url\n\tm[\'id\']=b.id\n\tm[\'likes\']=b.likes\n\tif b.video!=None and b.video!="":\n\t\t\tm[\'video\']="http://www.youtube.com/embed/"+(str(b.video).split("="))[1]\n\telse:\n\t\t\tm[\'video\']=b.video\n\tm[\'dislikes\']=b.dislikes\n\ty=[]\n\tfor k in a:\n\t\tx={}\n\t\ts=db(db.auth_user.id==k[\'commented_by\']).select(db.auth_user.ALL)[0]\n\t\tx[\'body\']=k[\'body\']\n\t\tx[\'on\']=k[\'commented_on\']\n\t\tx[\'by\']=str(s.first_name)+" "+str(s.last_name)\n\t\ty.append(x)\n\tz1=[]\n\tz1.append(m)\n\treturn locals()\n@auth.requires_login()\ndef likes_h():\n\tid1=request.args(0)\n\ta=db(db.news.id == id1).select(db.news.ALL)[0]\n\td = db(db.auth_user.id == auth.user_id).select(db.auth_user.ALL)[0]\n\tdb.LD.update_or_insert(new_id=id1,usr=d[\'id\'])\n\tx=db((db.LD.new_id==id1)&(db.LD.usr==d[\'id\'])).select(db.LD.ALL)[0]\n\tif x.l == True and x.d == False:\n\t\tx.l=False\n\t\ta.likes-=1\n\t\ta.ranks-=5\n\t\tsession.flash="You have unliked the news"\n\telif x.l==False and x.d==True:\n\t\tx.l=True\n\t\tx.d=False\n\t\ta.likes+=1\n\t\ta.ranks+=8\n\t\tsession.flash="You have liked the news"\n\telif x.l==False and x.d==False:\n\t\tx.l=True\n\t\ta.ranks+=5\n\t\ta.likes+=1\n\t\tsession.flash="You have liked the news"\n\tx.update_record()\n\ta.update_record()\n\tredirect(URL(r=request,f=index))\n\treturn locals()\n@auth.requires_login()\ndef unlike_c():\n\tid1=request.args(0)\n\ta=db(db.news.id == id1).select(db.news.ALL)[0]\n\ty=db((db.news.id==id1)&(db.news.Category == db.category.id)).select(db.category.ALL)[0]\n\td = db(db.auth_user.id == auth.user_id).select(db.auth_user.ALL)[0]\n\tdb.LD.update_or_insert(new_id=id1,usr=d[\'id\'])\n\tx=db((db.LD.new_id==id1)&(db.LD.usr==d[\'id\'])).select(db.LD.ALL)[0]\n\tif x.l == True and x.d == False:\n\t\tx.d=True\n\t\tx.l=False\n\t\ta.dislikes+=1\n\t\ta.ranks-=8\n\t\tsession.flash="You have disliked the news"\n\telif x.l==False and x.d==True:\n\t\tx.d=False\n\t\ta.ranks+=3\n\t\ta.dislikes-=1\n\t\tsession.flash="You have reverted your dislike"\n\telif x.l==False and x.d==False:\n\t\tx.d=True\n\t\ta.ranks-=3\n\t\ta.dislikes+=1\n\t\tsession.flash="You have disliked the news"\n\tx.update_record()\n\ta.update_record()\n\tz="catgry.html/"+str(y[\'name\'])\n\tredirect(URL(r=request,f=z))\n\treturn locals()\n@auth.requires_login()\ndef likes_c():\n\tid1=request.args(0)\n\ta=db(db.news.id == id1).select(db.news.ALL)[0]\n\ty=db((db.news.id==id1)&(db.news.Category == db.category.id)).select(db.category.ALL)[0]\n\td = db(db.auth_user.id == auth.user_id).select(db.auth_user.ALL)[0]\n\tdb.LD.update_or_insert(new_id=id1,usr=d[\'id\'])\n\tx=db((db.LD.new_id==id1)&(db.LD.usr==d[\'id\'])).select(db.LD.ALL)[0]\n\tif x.l == True and x.d == False:\n\t\tx.l=False\n\t\ta.ranks-=5\n\t\ta.likes-=1\n\t\tsession.flash="You have unliked the news"\n\telif x.l==False and x.d==True:\n\t\tx.l=True\n\t\tx.d=False\n\t\ta.likes+=1\n\t\ta.ranks+=8\n\t\tsession.flash="You have liked the news"\n\telif x.l==False and x.d==False:\n\t\tx.l=True\n\t\ta.ranks+=5\n\t\ta.likes+=1\n\t\tsession.flash="You have liked the news"\n\tx.update_record()\n\ta.update_record()\n\tz="catgry.html/"+str(y[\'name\'])\n\tredirect(URL(r=request,f=z))\n\treturn locals()\n@auth.requires_login()\ndef unlike_h():\n\tid1=request.args(0)\n\ta=db(db.news.id == id1).select(db.news.ALL)[0]\n\td = db(db.auth_user.id == auth.user_id).select(db.auth_user.ALL)[0]\n\tdb.LD.update_or_insert(new_id=id1,usr=d[\'id\'])\n\tx=db((db.LD.new_id==id1)&(db.LD.usr==d[\'id\'])).select(db.LD.ALL)[0]\n\tif x.l == True and x.d == False:\n\t\tx.d=True\n\t\tx.l=False\n\t\ta.dislikes+=1\n\t\ta.ranks-=8\n\t\tsession.flash="You have disliked the news"\n\telif x.l==False and x.d==True:\n\t\tx.d=False\n\t\ta.dislikes-=1\n\t\ta.ranks+=3\n\t\tsession.flash="You have reverted your dislike of the news"\n\telif x.l==False and x.d==False:\n\t\tx.d=True\n\t\ta.dislikes+=1\n\t\ta.ranks-=3\n\t\tsession.flash="You have disliked the news"\n\tx.update_record()\n\ta.update_record()\n\tredirect(URL(r=request,f=\'index\'))\n\treturn locals()\n@auth.requires_login()\ndef mynews():\n\tt=[]\n\tm1 = db(db.category.id > 0).select(db.category.ALL)\n\tfor k in m1:\n\t\tw=k.name\n\t\tt.append(w)\n\ty=[]\n\ta = db((db.auth_user.id == auth.user_id)&(db.news.posted_by==db.auth_user.id)).select(db.news.ALL,orderby=~db.news.likes)\n\tfor k in a:\n\t\t\t\tx={}\n\t\t\t\tx[\'Head\']=k[\'Heading\']\n\t\t\t\tx[\'Cat\']=k[\'Category\']\n\t\t\t\tx[\'Des\']=k[\'Description\']\n\t\t\t\tx[\'On\']=k[\'posted_on\']\n\t\t\t\tx[\'likes\']=str(k[\'likes\'])\n\t\t\t\tx[\'dislikes\']=str(k[\'dislikes\'])\n\t\t\t\tx[\'url\']=k[\'Url\']\n\t\t\t\tif k[\'video\']!=None and k[\'video\']!="":\n\t\t\t\t\tx[\'video\']="http://www.youtube.com/embed/"+(str(k[\'video\']).split("="))[1]\n\t\t\t\telse:\n\t\t\t\t\tx[\'video\']=k[\'video\']\n\t\t\t\tx[\'id\']=k[\'id\']\n\t\t\t\ty.append(x)\n\treturn locals()\n@auth.requires_login()\ndef mynews_add():\n\tt=[]\n\tm1 = db(db.category.id > 0).select(db.category.ALL)\n\tfor k in m1:\n\t\tw=k.name\n\t\tt.append(w)\n\ty=[]\n\ta = db((db.auth_user.id == auth.user_id)&(db.news.posted_by==db.auth_user.id)).select(db.news.ALL,orderby=~db.news.likes)\n\tfor k in a:\n\t\t\t\tx={}\n\t\t\t\tx[\'Head\']=k[\'Heading\']\n\t\t\t\tx[\'Cat\']=k[\'Category\']\n\t\t\t\tx[\'Des\']=k[\'Description\']\n\t\t\t\tx[\'On\']=k[\'posted_on\']\n\t\t\t\tx[\'likes\']=str(k[\'likes\'])\n\t\t\t\tx[\'dislikes\']=str(k[\'dislikes\'])\n\t\t\t\tx[\'url\']=k[\'Url\']\n\t\t\t\tif k[\'video\']!=None and k[\'video\']!="":\n\t\t\t\t\tx[\'video\']="http://www.youtube.com/embed/"+(str(k[\'video\']).split("="))[1]\n\t\t\t\telse:\n\t\t\t\t\tx[\'video\']=k[\'video\']\n\t\t\t\tx[\'id\']=k[\'id\']\n\t\t\t\ty.append(x)\n\treturn locals()\n@auth.requires_login()\ndef edit_news():\n\tid1=int(request.args(0))\n\tdb.news.likes.writable=db.news.likes.readable=False\n\tdb.news.dislikes.writable=db.news.dislikes.readable=False\n\tdb.news.posted_by.writable=db.news.posted_by.readable=False\n\tdb.news.ranks.writable=db.news.ranks.readable=False\n\tdb.news.id.writable=db.news.id.readable=False\n\tdb.news.posted_on.readable=db.news.posted_on.writable=False\n\tform=SQLFORM(db.news,id1)\n\tif form.accepts(request.vars,session):\n\t\tredirect(URL(r=request,f=mynews))\n\telif form.errors:\n\t \tresponse.flash=\'errors\'\n\treturn locals()\n@auth.requires_login()\ndef delete_news():\n\tid1=int(request.args(0))\n\tdb(db.news.id == id1).delete()\n\tredirect(URL(r=request,f=mynews))\n\treturn locals()\n@auth.requires_login()\ndef delete_category():\n\tid1=int(request.args(0))\n\tx=db(db.news.Category==id1).select(db.news.ALL)\n\tfor k in x:\n\t\tid2=k[\'id\']\n\t\tdb(db.LD.new_id==id2).delete()\n\t\tdb(db.comments.new_id==id2).delete()\n\t\tdb(db.news.Category==id1).delete()\n\tdb(db.category.id == id1).delete()\n\tredirect(URL(r=request,f=admin_home))\n\treturn locals()\n\n@auth.requires_login()\ndef add_comments():\n\tid1=int(request.args(0))\n#a=db((db.news.id==id1)&(db.comments.new_id==db.news.id)).select(db.comments.ALL)[0]\n\ty=db((db.news.id==id1)&(db.news.Category == db.category.id)).select(db.category.ALL)[0]\n\tdb.comments.new_id.default=id1\n\tz="catgry.html/"+str(y[\'name\'])\n\tdb.comments.new_id.writable=db.comments.new_id.readable=False\n\tusr=db(db.auth_user.id==auth.user_id).select(db.auth_user.ALL)[0]\n\tdb.comments.commented_by.default=usr[\'id\']\n\tdb.comments.commented_on.default=datetime.datetime.now()\n\tdb.comments.commented_by.readable=db.comments.commented_by.writable=False\n\tdb.comments.commented_on.readable=db.comments.commented_on.writable=False\n\tform=SQLFORM(db.comments)\n\tif form.accepts(request.vars,session):\n\t\tsession.flash="Successful"\n\t\tredirect(URL(r=request,f=z))\n\telif form.errors:\n\t \tsession.flash="errors"\n\treturn locals()\nimport datetime\n@auth.requires_login()\ndef add_comments_h():\n\tid1=int(request.args(0))\n#a=db((db.news.id==id1)&(db.comments.new_id==db.news.id)).select(db.comments.ALL)[0]\n\tdb.comments.new_id.default=id1\n\tdb.comments.new_id.writable=db.comments.new_id.readable=False\n\tusr=db(db.auth_user.id==auth.user_id).select(db.auth_user.ALL)[0]\n\tdb.comments.commented_by.default=usr[\'id\']\n\tdb.comments.commented_by.readable=db.comments.commented_by.writable=False\n\tdb.comments.commented_on.readable=db.comments.commented_on.writable=False\n\tform=SQLFORM(db.comments)\n\tif form.accepts(request.vars,session):\n\t\tsession.flash="Successful"\n\t\tredirect(URL(r=request,f=index))\n\telif form.errors:\n\t \tsession.flash="errors"\n\treturn locals()\n@auth.requires_login()\ndef admin_home():\n\ta=db(db.news.id > 0).select(db.news.ALL,orderby=~db.news.ranks)\n\ty=[]\n\tt=[]\n\tm1 = db(db.category.id > 0).select(db.category.ALL)\n\tfor k in m1:\n\t\tw=k.name\n\t\tt.append(w)\n#for k in m1:\n#\t\tt.append(k.name)\n\tfor k in a:\n\t\tx={}\n\t\tid2 = k[\'posted_by\']\n\t\tc = db((db.news.posted_by == id2) & (db.auth_user.id == db.news.posted_by)).select(db.auth_user.ALL)[0]\n\t\tid1=k[\'Category\']\n\t\tb=db((db.news.Category == id1) & (db.category.id == db.news.Category)).select(db.category.ALL)[0]\n\t\tx[\'Head\']=k[\'Heading\']\n\t\tx[\'Cat\']=b[\'name\']\n\t\tx[\'id\']=k[\'id\']\n\t\tx[\'dislikes\']=k[\'dislikes\']\n\t\tif k[\'video\']!=None and k[\'video\']!="":\n\t\t\tx[\'video\']="http://www.youtube.com/embed/"+(str(k[\'video\']).split("="))[1]\n\t\telse:\n\t\t\tx[\'video\']=k[\'video\']\n\t\tx[\'Des\']=k[\'Description\']\n\t\tx[\'By\']=str(c[\'first_name\'])+" " +str(c[\'last_name\'])\n\t\tx[\'On\']=k[\'posted_on\']\n\t\tx[\'likes\']=str(k[\'likes\'])\n\t\tx[\'url\']=k[\'Url\']\n\t\ty.append(x)\t\t\n\treturn locals()\n@auth.requires_login()\ndef add_cat():\n\tform=SQLFORM(db.category)\n\tif form.accepts(request.vars,session):\n\t\tredirect(URL(r=request,f=admin_home))\n\telif form.errors:\n\t \tresponse.flash="errors"\n\treturn locals()\n@auth.requires_login()\ndef delete_admin():\n\tid1=int(request.args(0))\n\tdb(db.news.id==id1).delete()\n\tredirect(URL(r=request,f=admin_home))\n\treturn locals()\n@auth.requires_login()\ndef delete_user():\n\tid1=int(request.args(0))\n\ta=db(db.LD.usr==id1).select(db.LD.ALL)\n\tfor k in a:\n\t\tb=db(db.news.id==k[\'new_id\']).select(db.news.ALL)[0]\n\t\tif k[\'l\']==True:\n\t\t\tb.likes-=1\n\t\t\tb.ranks-=5\n\t\tif k[\'d\']==True:\n\t\t\tb.dislikes-=1\n\t\t\tb.ranks+=3\n\t\tb.update_record()\n\tdb(db.comments.commented_by==id1).delete()\t\t\n\tdb(db.news.posted_by==id1).delete()\t\t\n\tdb(db.auth_user.id == id1).delete()\n\tredirect(URL(r=request,f=admin_home))\n\treturn locals()\n@auth.requires_login()\ndef list_cat():\n\tm = db(db.category.id > 0).select(db.category.ALL)\n\ty=[]\n\tfor k in m:\n\t\tx={}\n\t\tx[\'name\']=k[\'name\']\n\t\tx[\'id\']=k[\'id\']\n\t\ty.append(x)\n\treturn locals()\n\n@auth.requires_login()\ndef list_user():\n\tm = db(db.auth_user.id > 0).select(db.auth_user.ALL)\n\tt=[]\n\tm1 = db(db.category.id > 0).select(db.category.ALL)\n\tfor k in m1:\n\t\tw=k.name\n\t\tt.append(w)\n\ty=[]\n\tfor k in m:\n\t\tx={}\n\t\tx[\'id\']=k[\'id\']\n\t\tx[\'fn\']=k[\'first_name\']\n\t\tx[\'ln\']=k[\'last_name\']\n\t\tx[\'em\']=k[\'email\']\n\t\ty.append(x)\n\treturn locals()\n\ndef redirect_after_login(form):\n\t\tc  = auth.user_id\n\t\td = db(db.auth_user.id == auth.user_id).select(db.auth_user.ALL)[0]\n\t\tm = d[\'email\']\n\t\tif m == \'app_admin@gmail.com\':\n\t\t\tredirect(URL(r=request,f=admin_home))\n\t\telse :\n\t\t\tredirect(URL(r=request,f=index))\nauth.settings.login_onaccept.append(redirect_after_login)\n\nresponse._vars=response._caller(index)\n'
p7
sS'snapshot'
p8
(dp9
S'exception'
p10
(dp11
S'__hash__'
p12
S"<method-wrapper '__hash__' of exceptions.AttributeError object>"
p13
sS'__setattr__'
p14
S"<method-wrapper '__setattr__' of exceptions.AttributeError object>"
p15
sS'__reduce_ex__'
p16
S'<built-in method __reduce_ex__ of exceptions.AttributeError object>'
p17
sS'__getslice__'
p18
S"<method-wrapper '__getslice__' of exceptions.AttributeError object>"
p19
sS'__getitem__'
p20
S"<method-wrapper '__getitem__' of exceptions.AttributeError object>"
p21
sS'__setstate__'
p22
S'<built-in method __setstate__ of exceptions.AttributeError object>'
p23
sS'__reduce__'
p24
S'<built-in method __reduce__ of exceptions.AttributeError object>'
p25
sS'__str__'
p26
S"<method-wrapper '__str__' of exceptions.AttributeError object>"
p27
sS'__format__'
p28
S'<built-in method __format__ of exceptions.AttributeError object>'
p29
sS'__getattribute__'
p30
S"<method-wrapper '__getattribute__' of exceptions.AttributeError object>"
p31
sS'__class__'
p32
S"<type 'exceptions.AttributeError'>"
p33
sS'__unicode__'
p34
S'<built-in method __unicode__ of exceptions.AttributeError object>'
p35
sS'__delattr__'
p36
S"<method-wrapper '__delattr__' of exceptions.AttributeError object>"
p37
sS'__subclasshook__'
p38
S'<built-in method __subclasshook__ of type object>'
p39
sS'__repr__'
p40
S"<method-wrapper '__repr__' of exceptions.AttributeError object>"
p41
sS'args'
p42
S'("\'Cache\' object has no attribute \'action\'",)'
p43
sS'__dict__'
p44
S'{}'
p45
sS'__sizeof__'
p46
S'<built-in method __sizeof__ of exceptions.AttributeError object>'
p47
sS'__doc__'
p48
S"'Attribute not found.'"
p49
sS'__init__'
p50
S"<method-wrapper '__init__' of exceptions.AttributeError object>"
p51
sS'__new__'
p52
S'<built-in method __new__ of type object>'
p53
ssS'evalue'
p54
S"'Cache' object has no attribute 'action'"
p55
sS'request'
p56
ccopy_reg
_reconstructor
p57
(cgluon.html
BEAUTIFY
p58
c__builtin__
object
p59
NtRp60
(dp61
S'attributes'
p62
(dp63
sS'components'
p64
(lp65
g57
(cgluon.html
TABLE
p66
g59
NtRp67
(dp68
g62
(dp69
S'level'
p70
I5
ssS'parent'
p71
Nsg64
(lp72
g57
(cgluon.html
TR
p73
g59
NtRp74
(dp75
g62
(dp76
sg71
g67
sg64
(lp77
g57
(cgluon.html
TD
p78
g59
NtRp79
(dp80
g62
(dp81
S'_style'
p82
S'font-weight:bold;vertical-align:top'
p83
ssg71
g74
sg64
(lp84
S'ajax'
p85
asbag57
(g78
g59
NtRp86
(dp87
g62
(dp88
S'_valign'
p89
S'top'
p90
ssg71
g74
sg64
(lp91
S':'
asbag57
(g78
g59
NtRp92
(dp93
g62
(dp94
sg71
g74
sg64
(lp95
g57
(g58
g59
NtRp96
(dp97
g62
(dp98
g70
I5
ssg71
g92
sg64
(lp99
S'False'
p100
asbasbasbag57
(g73
g59
NtRp101
(dp102
g62
(dp103
sg71
g67
sg64
(lp104
g57
(g78
g59
NtRp105
(dp106
g62
(dp107
g82
g83
ssg71
g101
sg64
(lp108
S'application'
p109
asbag57
(g78
g59
NtRp110
(dp111
g62
(dp112
g89
g90
ssg71
g101
sg64
(lp113
S':'
asbag57
(g78
g59
NtRp114
(dp115
g62
(dp116
sg71
g101
sg64
(lp117
g57
(g58
g59
NtRp118
(dp119
g62
(dp120
g70
I5
ssg71
g114
sg64
(lp121
S'NOUVELLES_EN_LIGNE'
p122
asbasbasbag57
(g73
g59
NtRp123
(dp124
g62
(dp125
sg71
g67
sg64
(lp126
g57
(g78
g59
NtRp127
(dp128
g62
(dp129
g82
g83
ssg71
g123
sg64
(lp130
g42
asbag57
(g78
g59
NtRp131
(dp132
g62
(dp133
g89
g90
ssg71
g123
sg64
(lp134
S':'
asbag57
(g78
g59
NtRp135
(dp136
g62
(dp137
sg71
g123
sg64
(lp138
g57
(g58
g59
NtRp139
(dp140
g62
(dp141
g70
I5
ssg71
g135
sg64
(lp142
g57
(g66
g59
NtRp143
(dp144
g62
(dp145
g70
I4
ssg71
Nsg64
(lp146
sbasbasbasbag57
(g73
g59
NtRp147
(dp148
g62
(dp149
sg71
g67
sg64
(lp150
g57
(g78
g59
NtRp151
(dp152
g62
(dp153
g82
g83
ssg71
g147
sg64
(lp154
S'body'
p155
asbag57
(g78
g59
NtRp156
(dp157
g62
(dp158
g89
g90
ssg71
g147
sg64
(lp159
S':'
asbag57
(g78
g59
NtRp160
(dp161
g62
(dp162
sg71
g147
sg64
(lp163
g57
(g58
g59
NtRp164
(dp165
g62
(dp166
g70
I5
ssg71
g160
sg64
(lp167
S'<cStringIO.StringO object at 0x9929080>'
p168
asbasbasbag57
(g73
g59
NtRp169
(dp170
g62
(dp171
sg71
g67
sg64
(lp172
g57
(g78
g59
NtRp173
(dp174
g62
(dp175
g82
g83
ssg71
g169
sg64
(lp176
S'cid'
p177
asbag57
(g78
g59
NtRp178
(dp179
g62
(dp180
g89
g90
ssg71
g169
sg64
(lp181
S':'
asbag57
(g78
g59
NtRp182
(dp183
g62
(dp184
sg71
g169
sg64
(lp185
g57
(g58
g59
NtRp186
(dp187
g62
(dp188
g70
I5
ssg71
g182
sg64
(lp189
S'None'
p190
asbasbasbag57
(g73
g59
NtRp191
(dp192
g62
(dp193
sg71
g67
sg64
(lp194
g57
(g78
g59
NtRp195
(dp196
g62
(dp197
g82
g83
ssg71
g191
sg64
(lp198
S'client'
p199
asbag57
(g78
g59
NtRp200
(dp201
g62
(dp202
g89
g90
ssg71
g191
sg64
(lp203
S':'
asbag57
(g78
g59
NtRp204
(dp205
g62
(dp206
sg71
g191
sg64
(lp207
g57
(g58
g59
NtRp208
(dp209
g62
(dp210
g70
I5
ssg71
g204
sg64
(lp211
S'127.0.0.1'
p212
asbasbasbag57
(g73
g59
NtRp213
(dp214
g62
(dp215
sg71
g67
sg64
(lp216
g57
(g78
g59
NtRp217
(dp218
g62
(dp219
g82
g83
ssg71
g213
sg64
(lp220
S'controller'
p221
asbag57
(g78
g59
NtRp222
(dp223
g62
(dp224
g89
g90
ssg71
g213
sg64
(lp225
S':'
asbag57
(g78
g59
NtRp226
(dp227
g62
(dp228
sg71
g213
sg64
(lp229
g57
(g58
g59
NtRp230
(dp231
g62
(dp232
g70
I5
ssg71
g226
sg64
(lp233
S'default'
p234
asbasbasbag57
(g73
g59
NtRp235
(dp236
g62
(dp237
sg71
g67
sg64
(lp238
g57
(g78
g59
NtRp239
(dp240
g62
(dp241
g82
g83
ssg71
g235
sg64
(lp242
S'cookies'
p243
asbag57
(g78
g59
NtRp244
(dp245
g62
(dp246
g89
g90
ssg71
g235
sg64
(lp247
S':'
asbag57
(g78
g59
NtRp248
(dp249
g62
(dp250
sg71
g235
sg64
(lp251
g57
(g58
g59
NtRp252
(dp253
g62
(dp254
g70
I5
ssg71
g248
sg64
(lp255
g57
(g66
g59
NtRp256
(dp257
g62
(dp258
g70
I4
ssg71
Nsg64
(lp259
g57
(g73
g59
NtRp260
(dp261
g62
(dp262
sg71
g256
sg64
(lp263
g57
(g78
g59
NtRp264
(dp265
g62
(dp266
g82
g83
ssg71
g260
sg64
(lp267
S'session_id_admin'
p268
asbag57
(g78
g59
NtRp269
(dp270
g62
(dp271
g89
g90
ssg71
g260
sg64
(lp272
S':'
asbag57
(g78
g59
NtRp273
(dp274
g62
(dp275
sg71
g260
sg64
(lp276
g57
(g58
g59
NtRp277
(dp278
g62
(dp279
g70
I4
ssg71
g273
sg64
(lp280
S'127.0.0.1-5b19be24-72d6-4f6f-be7b-d367847b9965'
p281
ag57
(g66
g59
NtRp282
(dp283
g62
(dp284
g70
I3
ssg71
Nsg64
(lp285
g57
(g73
g59
NtRp286
(dp287
g62
(dp288
sg71
g282
sg64
(lp289
g57
(g78
g59
NtRp290
(dp291
g62
(dp292
g82
g83
ssg71
g286
sg64
(lp293
S'comment'
p294
asbag57
(g78
g59
NtRp295
(dp296
g62
(dp297
g89
g90
ssg71
g286
sg64
(lp298
S':'
asbag57
(g78
g59
NtRp299
(dp300
g62
(dp301
sg71
g286
sg64
(lp302
g57
(g58
g59
NtRp303
(dp304
g62
(dp305
g70
I3
ssg71
g299
sg64
(lp306
S''
asbasbasbag57
(g73
g59
NtRp307
(dp308
g62
(dp309
sg71
g282
sg64
(lp310
g57
(g78
g59
NtRp311
(dp312
g62
(dp313
g82
g83
ssg71
g307
sg64
(lp314
S'domain'
p315
asbag57
(g78
g59
NtRp316
(dp317
g62
(dp318
g89
g90
ssg71
g307
sg64
(lp319
S':'
asbag57
(g78
g59
NtRp320
(dp321
g62
(dp322
sg71
g307
sg64
(lp323
g57
(g58
g59
NtRp324
(dp325
g62
(dp326
g70
I3
ssg71
g320
sg64
(lp327
S''
asbasbasbag57
(g73
g59
NtRp328
(dp329
g62
(dp330
sg71
g282
sg64
(lp331
g57
(g78
g59
NtRp332
(dp333
g62
(dp334
g82
g83
ssg71
g328
sg64
(lp335
S'expires'
p336
asbag57
(g78
g59
NtRp337
(dp338
g62
(dp339
g89
g90
ssg71
g328
sg64
(lp340
S':'
asbag57
(g78
g59
NtRp341
(dp342
g62
(dp343
sg71
g328
sg64
(lp344
g57
(g58
g59
NtRp345
(dp346
g62
(dp347
g70
I3
ssg71
g341
sg64
(lp348
S''
asbasbasbag57
(g73
g59
NtRp349
(dp350
g62
(dp351
sg71
g282
sg64
(lp352
g57
(g78
g59
NtRp353
(dp354
g62
(dp355
g82
g83
ssg71
g349
sg64
(lp356
S'httponly'
p357
asbag57
(g78
g59
NtRp358
(dp359
g62
(dp360
g89
g90
ssg71
g349
sg64
(lp361
S':'
asbag57
(g78
g59
NtRp362
(dp363
g62
(dp364
sg71
g349
sg64
(lp365
g57
(g58
g59
NtRp366
(dp367
g62
(dp368
g70
I3
ssg71
g362
sg64
(lp369
S''
asbasbasbag57
(g73
g59
NtRp370
(dp371
g62
(dp372
sg71
g282
sg64
(lp373
g57
(g78
g59
NtRp374
(dp375
g62
(dp376
g82
g83
ssg71
g370
sg64
(lp377
S'max-age'
p378
asbag57
(g78
g59
NtRp379
(dp380
g62
(dp381
g89
g90
ssg71
g370
sg64
(lp382
S':'
asbag57
(g78
g59
NtRp383
(dp384
g62
(dp385
sg71
g370
sg64
(lp386
g57
(g58
g59
NtRp387
(dp388
g62
(dp389
g70
I3
ssg71
g383
sg64
(lp390
S''
asbasbasbag57
(g73
g59
NtRp391
(dp392
g62
(dp393
sg71
g282
sg64
(lp394
g57
(g78
g59
NtRp395
(dp396
g62
(dp397
g82
g83
ssg71
g391
sg64
(lp398
S'path'
p399
asbag57
(g78
g59
NtRp400
(dp401
g62
(dp402
g89
g90
ssg71
g391
sg64
(lp403
S':'
asbag57
(g78
g59
NtRp404
(dp405
g62
(dp406
sg71
g391
sg64
(lp407
g57
(g58
g59
NtRp408
(dp409
g62
(dp410
g70
I3
ssg71
g404
sg64
(lp411
S''
asbasbasbag57
(g73
g59
NtRp412
(dp413
g62
(dp414
sg71
g282
sg64
(lp415
g57
(g78
g59
NtRp416
(dp417
g62
(dp418
g82
g83
ssg71
g412
sg64
(lp419
S'secure'
p420
asbag57
(g78
g59
NtRp421
(dp422
g62
(dp423
g89
g90
ssg71
g412
sg64
(lp424
S':'
asbag57
(g78
g59
NtRp425
(dp426
g62
(dp427
sg71
g412
sg64
(lp428
g57
(g58
g59
NtRp429
(dp430
g62
(dp431
g70
I3
ssg71
g425
sg64
(lp432
S''
asbasbasbag57
(g73
g59
NtRp433
(dp434
g62
(dp435
sg71
g282
sg64
(lp436
g57
(g78
g59
NtRp437
(dp438
g62
(dp439
g82
g83
ssg71
g433
sg64
(lp440
S'version'
p441
asbag57
(g78
g59
NtRp442
(dp443
g62
(dp444
g89
g90
ssg71
g433
sg64
(lp445
S':'
asbag57
(g78
g59
NtRp446
(dp447
g62
(dp448
sg71
g433
sg64
(lp449
g57
(g58
g59
NtRp450
(dp451
g62
(dp452
g70
I3
ssg71
g446
sg64
(lp453
S''
asbasbasbasbasbasbasbag57
(g73
g59
NtRp454
(dp455
g62
(dp456
sg71
g256
sg64
(lp457
g57
(g78
g59
NtRp458
(dp459
g62
(dp460
g82
g83
ssg71
g454
sg64
(lp461
S'session_id_digurl'
p462
asbag57
(g78
g59
NtRp463
(dp464
g62
(dp465
g89
g90
ssg71
g454
sg64
(lp466
S':'
asbag57
(g78
g59
NtRp467
(dp468
g62
(dp469
sg71
g454
sg64
(lp470
g57
(g58
g59
NtRp471
(dp472
g62
(dp473
g70
I4
ssg71
g467
sg64
(lp474
S'127.0.0.1-15439b96-2e76-453b-a3b9-83a2cf17d867'
p475
ag57
(g66
g59
NtRp476
(dp477
g62
(dp478
g70
I3
ssg71
Nsg64
(lp479
g57
(g73
g59
NtRp480
(dp481
g62
(dp482
sg71
g476
sg64
(lp483
g57
(g78
g59
NtRp484
(dp485
g62
(dp486
g82
g83
ssg71
g480
sg64
(lp487
g294
asbag57
(g78
g59
NtRp488
(dp489
g62
(dp490
g89
g90
ssg71
g480
sg64
(lp491
S':'
asbag57
(g78
g59
NtRp492
(dp493
g62
(dp494
sg71
g480
sg64
(lp495
g57
(g58
g59
NtRp496
(dp497
g62
(dp498
g70
I3
ssg71
g492
sg64
(lp499
S''
asbasbasbag57
(g73
g59
NtRp500
(dp501
g62
(dp502
sg71
g476
sg64
(lp503
g57
(g78
g59
NtRp504
(dp505
g62
(dp506
g82
g83
ssg71
g500
sg64
(lp507
g315
asbag57
(g78
g59
NtRp508
(dp509
g62
(dp510
g89
g90
ssg71
g500
sg64
(lp511
S':'
asbag57
(g78
g59
NtRp512
(dp513
g62
(dp514
sg71
g500
sg64
(lp515
g57
(g58
g59
NtRp516
(dp517
g62
(dp518
g70
I3
ssg71
g512
sg64
(lp519
S''
asbasbasbag57
(g73
g59
NtRp520
(dp521
g62
(dp522
sg71
g476
sg64
(lp523
g57
(g78
g59
NtRp524
(dp525
g62
(dp526
g82
g83
ssg71
g520
sg64
(lp527
g336
asbag57
(g78
g59
NtRp528
(dp529
g62
(dp530
g89
g90
ssg71
g520
sg64
(lp531
S':'
asbag57
(g78
g59
NtRp532
(dp533
g62
(dp534
sg71
g520
sg64
(lp535
g57
(g58
g59
NtRp536
(dp537
g62
(dp538
g70
I3
ssg71
g532
sg64
(lp539
S''
asbasbasbag57
(g73
g59
NtRp540
(dp541
g62
(dp542
sg71
g476
sg64
(lp543
g57
(g78
g59
NtRp544
(dp545
g62
(dp546
g82
g83
ssg71
g540
sg64
(lp547
g357
asbag57
(g78
g59
NtRp548
(dp549
g62
(dp550
g89
g90
ssg71
g540
sg64
(lp551
S':'
asbag57
(g78
g59
NtRp552
(dp553
g62
(dp554
sg71
g540
sg64
(lp555
g57
(g58
g59
NtRp556
(dp557
g62
(dp558
g70
I3
ssg71
g552
sg64
(lp559
S''
asbasbasbag57
(g73
g59
NtRp560
(dp561
g62
(dp562
sg71
g476
sg64
(lp563
g57
(g78
g59
NtRp564
(dp565
g62
(dp566
g82
g83
ssg71
g560
sg64
(lp567
g378
asbag57
(g78
g59
NtRp568
(dp569
g62
(dp570
g89
g90
ssg71
g560
sg64
(lp571
S':'
asbag57
(g78
g59
NtRp572
(dp573
g62
(dp574
sg71
g560
sg64
(lp575
g57
(g58
g59
NtRp576
(dp577
g62
(dp578
g70
I3
ssg71
g572
sg64
(lp579
S''
asbasbasbag57
(g73
g59
NtRp580
(dp581
g62
(dp582
sg71
g476
sg64
(lp583
g57
(g78
g59
NtRp584
(dp585
g62
(dp586
g82
g83
ssg71
g580
sg64
(lp587
g399
asbag57
(g78
g59
NtRp588
(dp589
g62
(dp590
g89
g90
ssg71
g580
sg64
(lp591
S':'
asbag57
(g78
g59
NtRp592
(dp593
g62
(dp594
sg71
g580
sg64
(lp595
g57
(g58
g59
NtRp596
(dp597
g62
(dp598
g70
I3
ssg71
g592
sg64
(lp599
S''
asbasbasbag57
(g73
g59
NtRp600
(dp601
g62
(dp602
sg71
g476
sg64
(lp603
g57
(g78
g59
NtRp604
(dp605
g62
(dp606
g82
g83
ssg71
g600
sg64
(lp607
g420
asbag57
(g78
g59
NtRp608
(dp609
g62
(dp610
g89
g90
ssg71
g600
sg64
(lp611
S':'
asbag57
(g78
g59
NtRp612
(dp613
g62
(dp614
sg71
g600
sg64
(lp615
g57
(g58
g59
NtRp616
(dp617
g62
(dp618
g70
I3
ssg71
g612
sg64
(lp619
S''
asbasbasbag57
(g73
g59
NtRp620
(dp621
g62
(dp622
sg71
g476
sg64
(lp623
g57
(g78
g59
NtRp624
(dp625
g62
(dp626
g82
g83
ssg71
g620
sg64
(lp627
g441
asbag57
(g78
g59
NtRp628
(dp629
g62
(dp630
g89
g90
ssg71
g620
sg64
(lp631
S':'
asbag57
(g78
g59
NtRp632
(dp633
g62
(dp634
sg71
g620
sg64
(lp635
g57
(g58
g59
NtRp636
(dp637
g62
(dp638
g70
I3
ssg71
g632
sg64
(lp639
S''
asbasbasbasbasbasbasbag57
(g73
g59
NtRp640
(dp641
g62
(dp642
sg71
g256
sg64
(lp643
g57
(g78
g59
NtRp644
(dp645
g62
(dp646
g82
g83
ssg71
g640
sg64
(lp647
S'session_id_welcome'
p648
asbag57
(g78
g59
NtRp649
(dp650
g62
(dp651
g89
g90
ssg71
g640
sg64
(lp652
S':'
asbag57
(g78
g59
NtRp653
(dp654
g62
(dp655
sg71
g640
sg64
(lp656
g57
(g58
g59
NtRp657
(dp658
g62
(dp659
g70
I4
ssg71
g653
sg64
(lp660
S'127.0.0.1-365f9638-4227-4577-8713-046179a72b39'
p661
ag57
(g66
g59
NtRp662
(dp663
g62
(dp664
g70
I3
ssg71
Nsg64
(lp665
g57
(g73
g59
NtRp666
(dp667
g62
(dp668
sg71
g662
sg64
(lp669
g57
(g78
g59
NtRp670
(dp671
g62
(dp672
g82
g83
ssg71
g666
sg64
(lp673
g294
asbag57
(g78
g59
NtRp674
(dp675
g62
(dp676
g89
g90
ssg71
g666
sg64
(lp677
S':'
asbag57
(g78
g59
NtRp678
(dp679
g62
(dp680
sg71
g666
sg64
(lp681
g57
(g58
g59
NtRp682
(dp683
g62
(dp684
g70
I3
ssg71
g678
sg64
(lp685
S''
asbasbasbag57
(g73
g59
NtRp686
(dp687
g62
(dp688
sg71
g662
sg64
(lp689
g57
(g78
g59
NtRp690
(dp691
g62
(dp692
g82
g83
ssg71
g686
sg64
(lp693
g315
asbag57
(g78
g59
NtRp694
(dp695
g62
(dp696
g89
g90
ssg71
g686
sg64
(lp697
S':'
asbag57
(g78
g59
NtRp698
(dp699
g62
(dp700
sg71
g686
sg64
(lp701
g57
(g58
g59
NtRp702
(dp703
g62
(dp704
g70
I3
ssg71
g698
sg64
(lp705
S''
asbasbasbag57
(g73
g59
NtRp706
(dp707
g62
(dp708
sg71
g662
sg64
(lp709
g57
(g78
g59
NtRp710
(dp711
g62
(dp712
g82
g83
ssg71
g706
sg64
(lp713
g336
asbag57
(g78
g59
NtRp714
(dp715
g62
(dp716
g89
g90
ssg71
g706
sg64
(lp717
S':'
asbag57
(g78
g59
NtRp718
(dp719
g62
(dp720
sg71
g706
sg64
(lp721
g57
(g58
g59
NtRp722
(dp723
g62
(dp724
g70
I3
ssg71
g718
sg64
(lp725
S''
asbasbasbag57
(g73
g59
NtRp726
(dp727
g62
(dp728
sg71
g662
sg64
(lp729
g57
(g78
g59
NtRp730
(dp731
g62
(dp732
g82
g83
ssg71
g726
sg64
(lp733
g357
asbag57
(g78
g59
NtRp734
(dp735
g62
(dp736
g89
g90
ssg71
g726
sg64
(lp737
S':'
asbag57
(g78
g59
NtRp738
(dp739
g62
(dp740
sg71
g726
sg64
(lp741
g57
(g58
g59
NtRp742
(dp743
g62
(dp744
g70
I3
ssg71
g738
sg64
(lp745
S''
asbasbasbag57
(g73
g59
NtRp746
(dp747
g62
(dp748
sg71
g662
sg64
(lp749
g57
(g78
g59
NtRp750
(dp751
g62
(dp752
g82
g83
ssg71
g746
sg64
(lp753
g378
asbag57
(g78
g59
NtRp754
(dp755
g62
(dp756
g89
g90
ssg71
g746
sg64
(lp757
S':'
asbag57
(g78
g59
NtRp758
(dp759
g62
(dp760
sg71
g746
sg64
(lp761
g57
(g58
g59
NtRp762
(dp763
g62
(dp764
g70
I3
ssg71
g758
sg64
(lp765
S''
asbasbasbag57
(g73
g59
NtRp766
(dp767
g62
(dp768
sg71
g662
sg64
(lp769
g57
(g78
g59
NtRp770
(dp771
g62
(dp772
g82
g83
ssg71
g766
sg64
(lp773
g399
asbag57
(g78
g59
NtRp774
(dp775
g62
(dp776
g89
g90
ssg71
g766
sg64
(lp777
S':'
asbag57
(g78
g59
NtRp778
(dp779
g62
(dp780
sg71
g766
sg64
(lp781
g57
(g58
g59
NtRp782
(dp783
g62
(dp784
g70
I3
ssg71
g778
sg64
(lp785
S''
asbasbasbag57
(g73
g59
NtRp786
(dp787
g62
(dp788
sg71
g662
sg64
(lp789
g57
(g78
g59
NtRp790
(dp791
g62
(dp792
g82
g83
ssg71
g786
sg64
(lp793
g420
asbag57
(g78
g59
NtRp794
(dp795
g62
(dp796
g89
g90
ssg71
g786
sg64
(lp797
S':'
asbag57
(g78
g59
NtRp798
(dp799
g62
(dp800
sg71
g786
sg64
(lp801
g57
(g58
g59
NtRp802
(dp803
g62
(dp804
g70
I3
ssg71
g798
sg64
(lp805
S''
asbasbasbag57
(g73
g59
NtRp806
(dp807
g62
(dp808
sg71
g662
sg64
(lp809
g57
(g78
g59
NtRp810
(dp811
g62
(dp812
g82
g83
ssg71
g806
sg64
(lp813
g441
asbag57
(g78
g59
NtRp814
(dp815
g62
(dp816
g89
g90
ssg71
g806
sg64
(lp817
S':'
asbag57
(g78
g59
NtRp818
(dp819
g62
(dp820
sg71
g806
sg64
(lp821
g57
(g58
g59
NtRp822
(dp823
g62
(dp824
g70
I3
ssg71
g818
sg64
(lp825
S''
asbasbasbasbasbasbasbasbasbasbasbag57
(g73
g59
NtRp826
(dp827
g62
(dp828
sg71
g67
sg64
(lp829
g57
(g78
g59
NtRp830
(dp831
g62
(dp832
g82
g83
ssg71
g826
sg64
(lp833
S'env'
p834
asbag57
(g78
g59
NtRp835
(dp836
g62
(dp837
g89
g90
ssg71
g826
sg64
(lp838
S':'
asbag57
(g78
g59
NtRp839
(dp840
g62
(dp841
sg71
g826
sg64
(lp842
g57
(g58
g59
NtRp843
(dp844
g62
(dp845
g70
I5
ssg71
g839
sg64
(lp846
g57
(g66
g59
NtRp847
(dp848
g62
(dp849
g70
I4
ssg71
Nsg64
(lp850
g57
(g73
g59
NtRp851
(dp852
g62
(dp853
sg71
g847
sg64
(lp854
g57
(g78
g59
NtRp855
(dp856
g62
(dp857
g82
g83
ssg71
g851
sg64
(lp858
S'app_folders'
p859
asbag57
(g78
g59
NtRp860
(dp861
g62
(dp862
g89
g90
ssg71
g851
sg64
(lp863
S':'
asbag57
(g78
g59
NtRp864
(dp865
g62
(dp866
sg71
g851
sg64
(lp867
g57
(g58
g59
NtRp868
(dp869
g62
(dp870
g70
I4
ssg71
g864
sg64
(lp871
S"set(['/home/vanshika/vanshu/c pro/itws/itws2/web2py/applications/NOUVELLES_EN_LIGNE/', '/home/vanshika/vanshu/c pro/itws/itws2/web2py/applications/welcome/', '/home/vanshika/vanshu/c pro/itws/itws2/web2py/applications/admin/'])"
p872
asbasbasbag57
(g73
g59
NtRp873
(dp874
g62
(dp875
sg71
g847
sg64
(lp876
g57
(g78
g59
NtRp877
(dp878
g62
(dp879
g82
g83
ssg71
g873
sg64
(lp880
S'applications_parent'
p881
asbag57
(g78
g59
NtRp882
(dp883
g62
(dp884
g89
g90
ssg71
g873
sg64
(lp885
S':'
asbag57
(g78
g59
NtRp886
(dp887
g62
(dp888
sg71
g873
sg64
(lp889
g57
(g58
g59
NtRp890
(dp891
g62
(dp892
g70
I4
ssg71
g886
sg64
(lp893
S'/home/vanshika/vanshu/c pro/itws/itws2/web2py'
p894
asbasbasbag57
(g73
g59
NtRp895
(dp896
g62
(dp897
sg71
g847
sg64
(lp898
g57
(g78
g59
NtRp899
(dp900
g62
(dp901
g82
g83
ssg71
g895
sg64
(lp902
S'cmd_args'
p903
asbag57
(g78
g59
NtRp904
(dp905
g62
(dp906
g89
g90
ssg71
g895
sg64
(lp907
S':'
asbag57
(g78
g59
NtRp908
(dp909
g62
(dp910
sg71
g895
sg64
(lp911
g57
(g58
g59
NtRp912
(dp913
g62
(dp914
g70
I4
ssg71
g908
sg64
(lp915
g57
(g66
g59
NtRp916
(dp917
g62
(dp918
g70
I3
ssg71
Nsg64
(lp919
sbasbasbasbag57
(g73
g59
NtRp920
(dp921
g62
(dp922
sg71
g847
sg64
(lp923
g57
(g78
g59
NtRp924
(dp925
g62
(dp926
g82
g83
ssg71
g920
sg64
(lp927
S'cmd_options'
p928
asbag57
(g78
g59
NtRp929
(dp930
g62
(dp931
g89
g90
ssg71
g920
sg64
(lp932
S':'
asbag57
(g78
g59
NtRp933
(dp934
g62
(dp935
sg71
g920
sg64
(lp936
g57
(g58
g59
NtRp937
(dp938
g62
(dp939
g70
I4
ssg71
g933
sg64
(lp940
S"<Values at 0x9473a4c: {'verbose': False, 'ip': '127.0.0.1', 'with_scheduler': False, 'ips': [], 'shutdown_timeout': 5, 'taskbar': False, 'port': 8000, 'maxthreads': None, 'softcron': False, 'server_name': 'vanshika-HP-Pavilion-dv6700-Notebook-PC', 'bpython': False, 'nogui': False, 'pid_filename': 'httpserver.pid', 'extcron': False, 'runcron': False, 'run_system_tests': False, 'test': None, 'folder': '/home/vanshika/vanshu/c pro/itws/itws2/web2py', 'config': '', 'import_models': False, 'winservice': '', 'shell': None, 'run': '', 'log_filename': 'httpserver.log', 'debuglevel': 30, 'args': [''], 'socket_timeout': 5, 'ssl_ca_certificate': None, 'scheduler': None, 'profiler_filename': None, 'ssl_private_key': '', 'scheduler_groups': None, 'password': '<ask>', 'request_queue_size': 5, 'ssl_certificate': '', 'cronjob': False, 'numthreads': None, 'quiet': False, 'interfaces': None, 'minthreads': None, 'timeout': 10, 'plain': False, 'nobanner': False}>"
p941
asbasbasbag57
(g73
g59
NtRp942
(dp943
g62
(dp944
sg71
g847
sg64
(lp945
g57
(g78
g59
NtRp946
(dp947
g62
(dp948
g82
g83
ssg71
g942
sg64
(lp949
S'db_sessions'
p950
asbag57
(g78
g59
NtRp951
(dp952
g62
(dp953
g89
g90
ssg71
g942
sg64
(lp954
S':'
asbag57
(g78
g59
NtRp955
(dp956
g62
(dp957
sg71
g942
sg64
(lp958
g57
(g58
g59
NtRp959
(dp960
g62
(dp961
g70
I4
ssg71
g955
sg64
(lp962
S'set([])'
p963
asbasbasbag57
(g73
g59
NtRp964
(dp965
g62
(dp966
sg71
g847
sg64
(lp967
g57
(g78
g59
NtRp968
(dp969
g62
(dp970
g82
g83
ssg71
g964
sg64
(lp971
S'debugging'
p972
asbag57
(g78
g59
NtRp973
(dp974
g62
(dp975
g89
g90
ssg71
g964
sg64
(lp976
S':'
asbag57
(g78
g59
NtRp977
(dp978
g62
(dp979
sg71
g964
sg64
(lp980
g57
(g58
g59
NtRp981
(dp982
g62
(dp983
g70
I4
ssg71
g977
sg64
(lp984
g100
asbasbasbag57
(g73
g59
NtRp985
(dp986
g62
(dp987
sg71
g847
sg64
(lp988
g57
(g78
g59
NtRp989
(dp990
g62
(dp991
g82
g83
ssg71
g985
sg64
(lp992
S'gluon_parent'
p993
asbag57
(g78
g59
NtRp994
(dp995
g62
(dp996
g89
g90
ssg71
g985
sg64
(lp997
S':'
asbag57
(g78
g59
NtRp998
(dp999
g62
(dp1000
sg71
g985
sg64
(lp1001
g57
(g58
g59
NtRp1002
(dp1003
g62
(dp1004
g70
I4
ssg71
g998
sg64
(lp1005
S'/home/vanshika/vanshu/c pro/itws/itws2/web2py'
p1006
asbasbasbag57
(g73
g59
NtRp1007
(dp1008
g62
(dp1009
sg71
g847
sg64
(lp1010
g57
(g78
g59
NtRp1011
(dp1012
g62
(dp1013
g82
g83
ssg71
g1007
sg64
(lp1014
S'http_accept'
p1015
asbag57
(g78
g59
NtRp1016
(dp1017
g62
(dp1018
g89
g90
ssg71
g1007
sg64
(lp1019
S':'
asbag57
(g78
g59
NtRp1020
(dp1021
g62
(dp1022
sg71
g1007
sg64
(lp1023
g57
(g58
g59
NtRp1024
(dp1025
g62
(dp1026
g70
I4
ssg71
g1020
sg64
(lp1027
S'text/html,application/xhtml+xml,application/xml;q=0.9,*/*;q=0.8'
p1028
asbasbasbag57
(g73
g59
NtRp1029
(dp1030
g62
(dp1031
sg71
g847
sg64
(lp1032
g57
(g78
g59
NtRp1033
(dp1034
g62
(dp1035
g82
g83
ssg71
g1029
sg64
(lp1036
S'http_accept_encoding'
p1037
asbag57
(g78
g59
NtRp1038
(dp1039
g62
(dp1040
g89
g90
ssg71
g1029
sg64
(lp1041
S':'
asbag57
(g78
g59
NtRp1042
(dp1043
g62
(dp1044
sg71
g1029
sg64
(lp1045
g57
(g58
g59
NtRp1046
(dp1047
g62
(dp1048
g70
I4
ssg71
g1042
sg64
(lp1049
S'gzip, deflate'
p1050
asbasbasbag57
(g73
g59
NtRp1051
(dp1052
g62
(dp1053
sg71
g847
sg64
(lp1054
g57
(g78
g59
NtRp1055
(dp1056
g62
(dp1057
g82
g83
ssg71
g1051
sg64
(lp1058
S'http_accept_language'
p1059
asbag57
(g78
g59
NtRp1060
(dp1061
g62
(dp1062
g89
g90
ssg71
g1051
sg64
(lp1063
S':'
asbag57
(g78
g59
NtRp1064
(dp1065
g62
(dp1066
sg71
g1051
sg64
(lp1067
g57
(g58
g59
NtRp1068
(dp1069
g62
(dp1070
g70
I4
ssg71
g1064
sg64
(lp1071
S'en-US,en;q=0.5'
p1072
asbasbasbag57
(g73
g59
NtRp1073
(dp1074
g62
(dp1075
sg71
g847
sg64
(lp1076
g57
(g78
g59
NtRp1077
(dp1078
g62
(dp1079
g82
g83
ssg71
g1073
sg64
(lp1080
S'http_connection'
p1081
asbag57
(g78
g59
NtRp1082
(dp1083
g62
(dp1084
g89
g90
ssg71
g1073
sg64
(lp1085
S':'
asbag57
(g78
g59
NtRp1086
(dp1087
g62
(dp1088
sg71
g1073
sg64
(lp1089
g57
(g58
g59
NtRp1090
(dp1091
g62
(dp1092
g70
I4
ssg71
g1086
sg64
(lp1093
S'keep-alive'
p1094
asbasbasbag57
(g73
g59
NtRp1095
(dp1096
g62
(dp1097
sg71
g847
sg64
(lp1098
g57
(g78
g59
NtRp1099
(dp1100
g62
(dp1101
g82
g83
ssg71
g1095
sg64
(lp1102
S'http_cookie'
p1103
asbag57
(g78
g59
NtRp1104
(dp1105
g62
(dp1106
g89
g90
ssg71
g1095
sg64
(lp1107
S':'
asbag57
(g78
g59
NtRp1108
(dp1109
g62
(dp1110
sg71
g1095
sg64
(lp1111
g57
(g58
g59
NtRp1112
(dp1113
g62
(dp1114
g70
I4
ssg71
g1108
sg64
(lp1115
S'session_id_welcome=127.0.0.1-365f9638-4227-4577-8713-046179a72b39; session_id_digurl=127.0.0.1-15439b96-2e76-453b-a3b9-83a2cf17d867; session_id_admin=127.0.0.1-5b19be24-72d6-4f6f-be7b-d367847b9965'
p1116
asbasbasbag57
(g73
g59
NtRp1117
(dp1118
g62
(dp1119
sg71
g847
sg64
(lp1120
g57
(g78
g59
NtRp1121
(dp1122
g62
(dp1123
g82
g83
ssg71
g1117
sg64
(lp1124
S'http_host'
p1125
asbag57
(g78
g59
NtRp1126
(dp1127
g62
(dp1128
g89
g90
ssg71
g1117
sg64
(lp1129
S':'
asbag57
(g78
g59
NtRp1130
(dp1131
g62
(dp1132
sg71
g1117
sg64
(lp1133
g57
(g58
g59
NtRp1134
(dp1135
g62
(dp1136
g70
I4
ssg71
g1130
sg64
(lp1137
S'127.0.0.1:8000'
p1138
asbasbasbag57
(g73
g59
NtRp1139
(dp1140
g62
(dp1141
sg71
g847
sg64
(lp1142
g57
(g78
g59
NtRp1143
(dp1144
g62
(dp1145
g82
g83
ssg71
g1139
sg64
(lp1146
S'http_referer'
p1147
asbag57
(g78
g59
NtRp1148
(dp1149
g62
(dp1150
g89
g90
ssg71
g1139
sg64
(lp1151
S':'
asbag57
(g78
g59
NtRp1152
(dp1153
g62
(dp1154
sg71
g1139
sg64
(lp1155
g57
(g58
g59
NtRp1156
(dp1157
g62
(dp1158
g70
I4
ssg71
g1152
sg64
(lp1159
S'http://127.0.0.1:8000/admin/default/design/NOUVELLES_EN_LIGNE'
p1160
asbasbasbag57
(g73
g59
NtRp1161
(dp1162
g62
(dp1163
sg71
g847
sg64
(lp1164
g57
(g78
g59
NtRp1165
(dp1166
g62
(dp1167
g82
g83
ssg71
g1161
sg64
(lp1168
S'http_user_agent'
p1169
asbag57
(g78
g59
NtRp1170
(dp1171
g62
(dp1172
g89
g90
ssg71
g1161
sg64
(lp1173
S':'
asbag57
(g78
g59
NtRp1174
(dp1175
g62
(dp1176
sg71
g1161
sg64
(lp1177
g57
(g58
g59
NtRp1178
(dp1179
g62
(dp1180
g70
I4
ssg71
g1174
sg64
(lp1181
S'Mozilla/5.0 (X11; Ubuntu; Linux i686; rv:23.0) Gecko/20100101 Firefox/23.0'
p1182
asbasbasbag57
(g73
g59
NtRp1183
(dp1184
g62
(dp1185
sg71
g847
sg64
(lp1186
g57
(g78
g59
NtRp1187
(dp1188
g62
(dp1189
g82
g83
ssg71
g1183
sg64
(lp1190
S'is_jython'
p1191
asbag57
(g78
g59
NtRp1192
(dp1193
g62
(dp1194
g89
g90
ssg71
g1183
sg64
(lp1195
S':'
asbag57
(g78
g59
NtRp1196
(dp1197
g62
(dp1198
sg71
g1183
sg64
(lp1199
g57
(g58
g59
NtRp1200
(dp1201
g62
(dp1202
g70
I4
ssg71
g1196
sg64
(lp1203
g100
asbasbasbag57
(g73
g59
NtRp1204
(dp1205
g62
(dp1206
sg71
g847
sg64
(lp1207
g57
(g78
g59
NtRp1208
(dp1209
g62
(dp1210
g82
g83
ssg71
g1204
sg64
(lp1211
S'is_pypy'
p1212
asbag57
(g78
g59
NtRp1213
(dp1214
g62
(dp1215
g89
g90
ssg71
g1204
sg64
(lp1216
S':'
asbag57
(g78
g59
NtRp1217
(dp1218
g62
(dp1219
sg71
g1204
sg64
(lp1220
g57
(g58
g59
NtRp1221
(dp1222
g62
(dp1223
g70
I4
ssg71
g1217
sg64
(lp1224
g100
asbasbasbag57
(g73
g59
NtRp1225
(dp1226
g62
(dp1227
sg71
g847
sg64
(lp1228
g57
(g78
g59
NtRp1229
(dp1230
g62
(dp1231
g82
g83
ssg71
g1225
sg64
(lp1232
S'local_hosts'
p1233
asbag57
(g78
g59
NtRp1234
(dp1235
g62
(dp1236
g89
g90
ssg71
g1225
sg64
(lp1237
S':'
asbag57
(g78
g59
NtRp1238
(dp1239
g62
(dp1240
sg71
g1225
sg64
(lp1241
g57
(g58
g59
NtRp1242
(dp1243
g62
(dp1244
g70
I4
ssg71
g1238
sg64
(lp1245
g57
(g66
g59
NtRp1246
(dp1247
g62
(dp1248
g70
I3
ssg71
Nsg64
(lp1249
g57
(g73
g59
NtRp1250
(dp1251
g62
(dp1252
sg71
g1246
sg64
(lp1253
g57
(g78
g59
NtRp1254
(dp1255
g62
(dp1256
sg71
g1250
sg64
(lp1257
g57
(g58
g59
NtRp1258
(dp1259
g62
(dp1260
g70
I3
ssg71
g1254
sg64
(lp1261
S'127.0.1.1'
p1262
asbasbasbag57
(g73
g59
NtRp1263
(dp1264
g62
(dp1265
sg71
g1246
sg64
(lp1266
g57
(g78
g59
NtRp1267
(dp1268
g62
(dp1269
sg71
g1263
sg64
(lp1270
g57
(g58
g59
NtRp1271
(dp1272
g62
(dp1273
g70
I3
ssg71
g1267
sg64
(lp1274
S'::1'
p1275
asbasbasbag57
(g73
g59
NtRp1276
(dp1277
g62
(dp1278
sg71
g1246
sg64
(lp1279
g57
(g78
g59
NtRp1280
(dp1281
g62
(dp1282
sg71
g1276
sg64
(lp1283
g57
(g58
g59
NtRp1284
(dp1285
g62
(dp1286
g70
I3
ssg71
g1280
sg64
(lp1287
S'vanshika-HP-Pavilion-dv6700-Notebook-PC'
p1288
asbasbasbag57
(g73
g59
NtRp1289
(dp1290
g62
(dp1291
sg71
g1246
sg64
(lp1292
g57
(g78
g59
NtRp1293
(dp1294
g62
(dp1295
sg71
g1289
sg64
(lp1296
g57
(g58
g59
NtRp1297
(dp1298
g62
(dp1299
g70
I3
ssg71
g1293
sg64
(lp1300
S'::ffff:127.0.0.1'
p1301
asbasbasbag57
(g73
g59
NtRp1302
(dp1303
g62
(dp1304
sg71
g1246
sg64
(lp1305
g57
(g78
g59
NtRp1306
(dp1307
g62
(dp1308
sg71
g1302
sg64
(lp1309
g57
(g58
g59
NtRp1310
(dp1311
g62
(dp1312
g70
I3
ssg71
g1306
sg64
(lp1313
S'127.0.0.1'
p1314
asbasbasbasbasbasbasbag57
(g73
g59
NtRp1315
(dp1316
g62
(dp1317
sg71
g847
sg64
(lp1318
g57
(g78
g59
NtRp1319
(dp1320
g62
(dp1321
g82
g83
ssg71
g1315
sg64
(lp1322
S'path_info'
p1323
asbag57
(g78
g59
NtRp1324
(dp1325
g62
(dp1326
g89
g90
ssg71
g1315
sg64
(lp1327
S':'
asbag57
(g78
g59
NtRp1328
(dp1329
g62
(dp1330
sg71
g1315
sg64
(lp1331
g57
(g58
g59
NtRp1332
(dp1333
g62
(dp1334
g70
I4
ssg71
g1328
sg64
(lp1335
S'/NOUVELLES_EN_LIGNE/default/index'
p1336
asbasbasbag57
(g73
g59
NtRp1337
(dp1338
g62
(dp1339
sg71
g847
sg64
(lp1340
g57
(g78
g59
NtRp1341
(dp1342
g62
(dp1343
g82
g83
ssg71
g1337
sg64
(lp1344
S'query_string'
p1345
asbag57
(g78
g59
NtRp1346
(dp1347
g62
(dp1348
g89
g90
ssg71
g1337
sg64
(lp1349
S':'
asbag57
(g78
g59
NtRp1350
(dp1351
g62
(dp1352
sg71
g1337
sg64
(lp1353
g57
(g58
g59
NtRp1354
(dp1355
g62
(dp1356
g70
I4
ssg71
g1350
sg64
(lp1357
S''
asbasbasbag57
(g73
g59
NtRp1358
(dp1359
g62
(dp1360
sg71
g847
sg64
(lp1361
g57
(g78
g59
NtRp1362
(dp1363
g62
(dp1364
g82
g83
ssg71
g1358
sg64
(lp1365
S'remote_addr'
p1366
asbag57
(g78
g59
NtRp1367
(dp1368
g62
(dp1369
g89
g90
ssg71
g1358
sg64
(lp1370
S':'
asbag57
(g78
g59
NtRp1371
(dp1372
g62
(dp1373
sg71
g1358
sg64
(lp1374
g57
(g58
g59
NtRp1375
(dp1376
g62
(dp1377
g70
I4
ssg71
g1371
sg64
(lp1378
g212
asbasbasbag57
(g73
g59
NtRp1379
(dp1380
g62
(dp1381
sg71
g847
sg64
(lp1382
g57
(g78
g59
NtRp1383
(dp1384
g62
(dp1385
g82
g83
ssg71
g1379
sg64
(lp1386
S'remote_port'
p1387
asbag57
(g78
g59
NtRp1388
(dp1389
g62
(dp1390
g89
g90
ssg71
g1379
sg64
(lp1391
S':'
asbag57
(g78
g59
NtRp1392
(dp1393
g62
(dp1394
sg71
g1379
sg64
(lp1395
g57
(g58
g59
NtRp1396
(dp1397
g62
(dp1398
g70
I4
ssg71
g1392
sg64
(lp1399
S'40574'
p1400
asbasbasbag57
(g73
g59
NtRp1401
(dp1402
g62
(dp1403
sg71
g847
sg64
(lp1404
g57
(g78
g59
NtRp1405
(dp1406
g62
(dp1407
g82
g83
ssg71
g1401
sg64
(lp1408
S'request_method'
p1409
asbag57
(g78
g59
NtRp1410
(dp1411
g62
(dp1412
g89
g90
ssg71
g1401
sg64
(lp1413
S':'
asbag57
(g78
g59
NtRp1414
(dp1415
g62
(dp1416
sg71
g1401
sg64
(lp1417
g57
(g58
g59
NtRp1418
(dp1419
g62
(dp1420
g70
I4
ssg71
g1414
sg64
(lp1421
S'GET'
p1422
asbasbasbag57
(g73
g59
NtRp1423
(dp1424
g62
(dp1425
sg71
g847
sg64
(lp1426
g57
(g78
g59
NtRp1427
(dp1428
g62
(dp1429
g82
g83
ssg71
g1423
sg64
(lp1430
S'request_uri'
p1431
asbag57
(g78
g59
NtRp1432
(dp1433
g62
(dp1434
g89
g90
ssg71
g1423
sg64
(lp1435
S':'
asbag57
(g78
g59
NtRp1436
(dp1437
g62
(dp1438
sg71
g1423
sg64
(lp1439
g57
(g58
g59
NtRp1440
(dp1441
g62
(dp1442
g70
I4
ssg71
g1436
sg64
(lp1443
g1336
asbasbasbag57
(g73
g59
NtRp1444
(dp1445
g62
(dp1446
sg71
g847
sg64
(lp1447
g57
(g78
g59
NtRp1448
(dp1449
g62
(dp1450
g82
g83
ssg71
g1444
sg64
(lp1451
S'script_name'
p1452
asbag57
(g78
g59
NtRp1453
(dp1454
g62
(dp1455
g89
g90
ssg71
g1444
sg64
(lp1456
S':'
asbag57
(g78
g59
NtRp1457
(dp1458
g62
(dp1459
sg71
g1444
sg64
(lp1460
g57
(g58
g59
NtRp1461
(dp1462
g62
(dp1463
g70
I4
ssg71
g1457
sg64
(lp1464
S''
asbasbasbag57
(g73
g59
NtRp1465
(dp1466
g62
(dp1467
sg71
g847
sg64
(lp1468
g57
(g78
g59
NtRp1469
(dp1470
g62
(dp1471
g82
g83
ssg71
g1465
sg64
(lp1472
S'server_name'
p1473
asbag57
(g78
g59
NtRp1474
(dp1475
g62
(dp1476
g89
g90
ssg71
g1465
sg64
(lp1477
S':'
asbag57
(g78
g59
NtRp1478
(dp1479
g62
(dp1480
sg71
g1465
sg64
(lp1481
g57
(g58
g59
NtRp1482
(dp1483
g62
(dp1484
g70
I4
ssg71
g1478
sg64
(lp1485
S'vanshika-HP-Pavilion-dv6700-Notebook-PC'
p1486
asbasbasbag57
(g73
g59
NtRp1487
(dp1488
g62
(dp1489
sg71
g847
sg64
(lp1490
g57
(g78
g59
NtRp1491
(dp1492
g62
(dp1493
g82
g83
ssg71
g1487
sg64
(lp1494
S'server_port'
p1495
asbag57
(g78
g59
NtRp1496
(dp1497
g62
(dp1498
g89
g90
ssg71
g1487
sg64
(lp1499
S':'
asbag57
(g78
g59
NtRp1500
(dp1501
g62
(dp1502
sg71
g1487
sg64
(lp1503
g57
(g58
g59
NtRp1504
(dp1505
g62
(dp1506
g70
I4
ssg71
g1500
sg64
(lp1507
S'8000'
p1508
asbasbasbag57
(g73
g59
NtRp1509
(dp1510
g62
(dp1511
sg71
g847
sg64
(lp1512
g57
(g78
g59
NtRp1513
(dp1514
g62
(dp1515
g82
g83
ssg71
g1509
sg64
(lp1516
S'server_protocol'
p1517
asbag57
(g78
g59
NtRp1518
(dp1519
g62
(dp1520
g89
g90
ssg71
g1509
sg64
(lp1521
S':'
asbag57
(g78
g59
NtRp1522
(dp1523
g62
(dp1524
sg71
g1509
sg64
(lp1525
g57
(g58
g59
NtRp1526
(dp1527
g62
(dp1528
g70
I4
ssg71
g1522
sg64
(lp1529
S'HTTP/1.1'
p1530
asbasbasbag57
(g73
g59
NtRp1531
(dp1532
g62
(dp1533
sg71
g847
sg64
(lp1534
g57
(g78
g59
NtRp1535
(dp1536
g62
(dp1537
g82
g83
ssg71
g1531
sg64
(lp1538
S'server_software'
p1539
asbag57
(g78
g59
NtRp1540
(dp1541
g62
(dp1542
g89
g90
ssg71
g1531
sg64
(lp1543
S':'
asbag57
(g78
g59
NtRp1544
(dp1545
g62
(dp1546
sg71
g1531
sg64
(lp1547
g57
(g58
g59
NtRp1548
(dp1549
g62
(dp1550
g70
I4
ssg71
g1544
sg64
(lp1551
S'Rocket 1.2.6'
p1552
asbasbasbag57
(g73
g59
NtRp1553
(dp1554
g62
(dp1555
sg71
g847
sg64
(lp1556
g57
(g78
g59
NtRp1557
(dp1558
g62
(dp1559
g82
g83
ssg71
g1553
sg64
(lp1560
S'web2py_path'
p1561
asbag57
(g78
g59
NtRp1562
(dp1563
g62
(dp1564
g89
g90
ssg71
g1553
sg64
(lp1565
S':'
asbag57
(g78
g59
NtRp1566
(dp1567
g62
(dp1568
sg71
g1553
sg64
(lp1569
g57
(g58
g59
NtRp1570
(dp1571
g62
(dp1572
g70
I4
ssg71
g1566
sg64
(lp1573
g894
asbasbasbag57
(g73
g59
NtRp1574
(dp1575
g62
(dp1576
sg71
g847
sg64
(lp1577
g57
(g78
g59
NtRp1578
(dp1579
g62
(dp1580
g82
g83
ssg71
g1574
sg64
(lp1581
S'web2py_version'
p1582
asbag57
(g78
g59
NtRp1583
(dp1584
g62
(dp1585
g89
g90
ssg71
g1574
sg64
(lp1586
S':'
asbag57
(g78
g59
NtRp1587
(dp1588
g62
(dp1589
sg71
g1574
sg64
(lp1590
g57
(g58
g59
NtRp1591
(dp1592
g62
(dp1593
g70
I4
ssg71
g1587
sg64
(lp1594
g57
(g66
g59
NtRp1595
(dp1596
g62
(dp1597
g70
I3
ssg71
Nsg64
(lp1598
g57
(g73
g59
NtRp1599
(dp1600
g62
(dp1601
sg71
g1595
sg64
(lp1602
g57
(g78
g59
NtRp1603
(dp1604
g62
(dp1605
sg71
g1599
sg64
(lp1606
g57
(g58
g59
NtRp1607
(dp1608
g62
(dp1609
g70
I3
ssg71
g1603
sg64
(lp1610
S'2'
asbasbasbag57
(g73
g59
NtRp1611
(dp1612
g62
(dp1613
sg71
g1595
sg64
(lp1614
g57
(g78
g59
NtRp1615
(dp1616
g62
(dp1617
sg71
g1611
sg64
(lp1618
g57
(g58
g59
NtRp1619
(dp1620
g62
(dp1621
g70
I3
ssg71
g1615
sg64
(lp1622
S'3'
asbasbasbag57
(g73
g59
NtRp1623
(dp1624
g62
(dp1625
sg71
g1595
sg64
(lp1626
g57
(g78
g59
NtRp1627
(dp1628
g62
(dp1629
sg71
g1623
sg64
(lp1630
g57
(g58
g59
NtRp1631
(dp1632
g62
(dp1633
g70
I3
ssg71
g1627
sg64
(lp1634
S'2'
asbasbasbag57
(g73
g59
NtRp1635
(dp1636
g62
(dp1637
sg71
g1595
sg64
(lp1638
g57
(g78
g59
NtRp1639
(dp1640
g62
(dp1641
sg71
g1635
sg64
(lp1642
g57
(g58
g59
NtRp1643
(dp1644
g62
(dp1645
g70
I3
ssg71
g1639
sg64
(lp1646
S'datetime.datetime(2012, 12, 17, 15, 3, 30)'
p1647
asbasbasbag57
(g73
g59
NtRp1648
(dp1649
g62
(dp1650
sg71
g1595
sg64
(lp1651
g57
(g78
g59
NtRp1652
(dp1653
g62
(dp1654
sg71
g1648
sg64
(lp1655
g57
(g58
g59
NtRp1656
(dp1657
g62
(dp1658
g70
I3
ssg71
g1652
sg64
(lp1659
S'stable'
p1660
asbasbasbasbasbasbasbag57
(g73
g59
NtRp1661
(dp1662
g62
(dp1663
sg71
g847
sg64
(lp1664
g57
(g78
g59
NtRp1665
(dp1666
g62
(dp1667
g82
g83
ssg71
g1661
sg64
(lp1668
S'wsgi_errors'
p1669
asbag57
(g78
g59
NtRp1670
(dp1671
g62
(dp1672
g89
g90
ssg71
g1661
sg64
(lp1673
S':'
asbag57
(g78
g59
NtRp1674
(dp1675
g62
(dp1676
sg71
g1661
sg64
(lp1677
g57
(g58
g59
NtRp1678
(dp1679
g62
(dp1680
g70
I4
ssg71
g1674
sg64
(lp1681
S"<open file '<stderr>', mode 'w' at 0xb72840d0>"
p1682
asbasbasbag57
(g73
g59
NtRp1683
(dp1684
g62
(dp1685
sg71
g847
sg64
(lp1686
g57
(g78
g59
NtRp1687
(dp1688
g62
(dp1689
g82
g83
ssg71
g1683
sg64
(lp1690
S'wsgi_file_wrapper'
p1691
asbag57
(g78
g59
NtRp1692
(dp1693
g62
(dp1694
g89
g90
ssg71
g1683
sg64
(lp1695
S':'
asbag57
(g78
g59
NtRp1696
(dp1697
g62
(dp1698
sg71
g1683
sg64
(lp1699
g57
(g58
g59
NtRp1700
(dp1701
g62
(dp1702
g70
I4
ssg71
g1696
sg64
(lp1703
S'<class wsgiref.util.FileWrapper at 0x943765c>'
p1704
asbasbasbag57
(g73
g59
NtRp1705
(dp1706
g62
(dp1707
sg71
g847
sg64
(lp1708
g57
(g78
g59
NtRp1709
(dp1710
g62
(dp1711
g82
g83
ssg71
g1705
sg64
(lp1712
S'wsgi_input'
p1713
asbag57
(g78
g59
NtRp1714
(dp1715
g62
(dp1716
g89
g90
ssg71
g1705
sg64
(lp1717
S':'
asbag57
(g78
g59
NtRp1718
(dp1719
g62
(dp1720
sg71
g1705
sg64
(lp1721
g57
(g58
g59
NtRp1722
(dp1723
g62
(dp1724
g70
I4
ssg71
g1718
sg64
(lp1725
S'<socket._fileobject object at 0xae66082c>'
p1726
asbasbasbag57
(g73
g59
NtRp1727
(dp1728
g62
(dp1729
sg71
g847
sg64
(lp1730
g57
(g78
g59
NtRp1731
(dp1732
g62
(dp1733
g82
g83
ssg71
g1727
sg64
(lp1734
S'wsgi_multiprocess'
p1735
asbag57
(g78
g59
NtRp1736
(dp1737
g62
(dp1738
g89
g90
ssg71
g1727
sg64
(lp1739
S':'
asbag57
(g78
g59
NtRp1740
(dp1741
g62
(dp1742
sg71
g1727
sg64
(lp1743
g57
(g58
g59
NtRp1744
(dp1745
g62
(dp1746
g70
I4
ssg71
g1740
sg64
(lp1747
g100
asbasbasbag57
(g73
g59
NtRp1748
(dp1749
g62
(dp1750
sg71
g847
sg64
(lp1751
g57
(g78
g59
NtRp1752
(dp1753
g62
(dp1754
g82
g83
ssg71
g1748
sg64
(lp1755
S'wsgi_multithread'
p1756
asbag57
(g78
g59
NtRp1757
(dp1758
g62
(dp1759
g89
g90
ssg71
g1748
sg64
(lp1760
S':'
asbag57
(g78
g59
NtRp1761
(dp1762
g62
(dp1763
sg71
g1748
sg64
(lp1764
g57
(g58
g59
NtRp1765
(dp1766
g62
(dp1767
g70
I4
ssg71
g1761
sg64
(lp1768
S'True'
p1769
asbasbasbag57
(g73
g59
NtRp1770
(dp1771
g62
(dp1772
sg71
g847
sg64
(lp1773
g57
(g78
g59
NtRp1774
(dp1775
g62
(dp1776
g82
g83
ssg71
g1770
sg64
(lp1777
S'wsgi_run_once'
p1778
asbag57
(g78
g59
NtRp1779
(dp1780
g62
(dp1781
g89
g90
ssg71
g1770
sg64
(lp1782
S':'
asbag57
(g78
g59
NtRp1783
(dp1784
g62
(dp1785
sg71
g1770
sg64
(lp1786
g57
(g58
g59
NtRp1787
(dp1788
g62
(dp1789
g70
I4
ssg71
g1783
sg64
(lp1790
g100
asbasbasbag57
(g73
g59
NtRp1791
(dp1792
g62
(dp1793
sg71
g847
sg64
(lp1794
g57
(g78
g59
NtRp1795
(dp1796
g62
(dp1797
g82
g83
ssg71
g1791
sg64
(lp1798
S'wsgi_url_scheme'
p1799
asbag57
(g78
g59
NtRp1800
(dp1801
g62
(dp1802
g89
g90
ssg71
g1791
sg64
(lp1803
S':'
asbag57
(g78
g59
NtRp1804
(dp1805
g62
(dp1806
sg71
g1791
sg64
(lp1807
g57
(g58
g59
NtRp1808
(dp1809
g62
(dp1810
g70
I4
ssg71
g1804
sg64
(lp1811
S'http'
p1812
asbasbasbag57
(g73
g59
NtRp1813
(dp1814
g62
(dp1815
sg71
g847
sg64
(lp1816
g57
(g78
g59
NtRp1817
(dp1818
g62
(dp1819
g82
g83
ssg71
g1813
sg64
(lp1820
S'wsgi_version'
p1821
asbag57
(g78
g59
NtRp1822
(dp1823
g62
(dp1824
g89
g90
ssg71
g1813
sg64
(lp1825
S':'
asbag57
(g78
g59
NtRp1826
(dp1827
g62
(dp1828
sg71
g1813
sg64
(lp1829
g57
(g58
g59
NtRp1830
(dp1831
g62
(dp1832
g70
I4
ssg71
g1826
sg64
(lp1833
g57
(g66
g59
NtRp1834
(dp1835
g62
(dp1836
g70
I3
ssg71
Nsg64
(lp1837
g57
(g73
g59
NtRp1838
(dp1839
g62
(dp1840
sg71
g1834
sg64
(lp1841
g57
(g78
g59
NtRp1842
(dp1843
g62
(dp1844
sg71
g1838
sg64
(lp1845
g57
(g58
g59
NtRp1846
(dp1847
g62
(dp1848
g70
I3
ssg71
g1842
sg64
(lp1849
S'1'
asbasbasbag57
(g73
g59
NtRp1850
(dp1851
g62
(dp1852
sg71
g1834
sg64
(lp1853
g57
(g78
g59
NtRp1854
(dp1855
g62
(dp1856
sg71
g1850
sg64
(lp1857
g57
(g58
g59
NtRp1858
(dp1859
g62
(dp1860
g70
I3
ssg71
g1854
sg64
(lp1861
S'0'
asbasbasbasbasbasbasbasbasbasbasbag57
(g73
g59
NtRp1862
(dp1863
g62
(dp1864
sg71
g67
sg64
(lp1865
g57
(g78
g59
NtRp1866
(dp1867
g62
(dp1868
g82
g83
ssg71
g1862
sg64
(lp1869
S'extension'
p1870
asbag57
(g78
g59
NtRp1871
(dp1872
g62
(dp1873
g89
g90
ssg71
g1862
sg64
(lp1874
S':'
asbag57
(g78
g59
NtRp1875
(dp1876
g62
(dp1877
sg71
g1862
sg64
(lp1878
g57
(g58
g59
NtRp1879
(dp1880
g62
(dp1881
g70
I5
ssg71
g1875
sg64
(lp1882
S'html'
p1883
asbasbasbag57
(g73
g59
NtRp1884
(dp1885
g62
(dp1886
sg71
g67
sg64
(lp1887
g57
(g78
g59
NtRp1888
(dp1889
g62
(dp1890
g82
g83
ssg71
g1884
sg64
(lp1891
S'folder'
p1892
asbag57
(g78
g59
NtRp1893
(dp1894
g62
(dp1895
g89
g90
ssg71
g1884
sg64
(lp1896
S':'
asbag57
(g78
g59
NtRp1897
(dp1898
g62
(dp1899
sg71
g1884
sg64
(lp1900
g57
(g58
g59
NtRp1901
(dp1902
g62
(dp1903
g70
I5
ssg71
g1897
sg64
(lp1904
S'/home/vanshika/vanshu/c pro/itws/itws2/web2py/applications/NOUVELLES_EN_LIGNE/'
p1905
asbasbasbag57
(g73
g59
NtRp1906
(dp1907
g62
(dp1908
sg71
g67
sg64
(lp1909
g57
(g78
g59
NtRp1910
(dp1911
g62
(dp1912
g82
g83
ssg71
g1906
sg64
(lp1913
S'function'
p1914
asbag57
(g78
g59
NtRp1915
(dp1916
g62
(dp1917
g89
g90
ssg71
g1906
sg64
(lp1918
S':'
asbag57
(g78
g59
NtRp1919
(dp1920
g62
(dp1921
sg71
g1906
sg64
(lp1922
g57
(g58
g59
NtRp1923
(dp1924
g62
(dp1925
g70
I5
ssg71
g1919
sg64
(lp1926
S'index'
p1927
asbasbasbag57
(g73
g59
NtRp1928
(dp1929
g62
(dp1930
sg71
g67
sg64
(lp1931
g57
(g78
g59
NtRp1932
(dp1933
g62
(dp1934
g82
g83
ssg71
g1928
sg64
(lp1935
S'get_vars'
p1936
asbag57
(g78
g59
NtRp1937
(dp1938
g62
(dp1939
g89
g90
ssg71
g1928
sg64
(lp1940
S':'
asbag57
(g78
g59
NtRp1941
(dp1942
g62
(dp1943
sg71
g1928
sg64
(lp1944
g57
(g58
g59
NtRp1945
(dp1946
g62
(dp1947
g70
I5
ssg71
g1941
sg64
(lp1948
g57
(g66
g59
NtRp1949
(dp1950
g62
(dp1951
g70
I4
ssg71
Nsg64
(lp1952
sbasbasbasbag57
(g73
g59
NtRp1953
(dp1954
g62
(dp1955
sg71
g67
sg64
(lp1956
g57
(g78
g59
NtRp1957
(dp1958
g62
(dp1959
g82
g83
ssg71
g1953
sg64
(lp1960
S'global_settings'
p1961
asbag57
(g78
g59
NtRp1962
(dp1963
g62
(dp1964
g89
g90
ssg71
g1953
sg64
(lp1965
S':'
asbag57
(g78
g59
NtRp1966
(dp1967
g62
(dp1968
sg71
g1953
sg64
(lp1969
g57
(g58
g59
NtRp1970
(dp1971
g62
(dp1972
g70
I5
ssg71
g1966
sg64
(lp1973
g57
(g66
g59
NtRp1974
(dp1975
g62
(dp1976
g70
I4
ssg71
Nsg64
(lp1977
g57
(g73
g59
NtRp1978
(dp1979
g62
(dp1980
sg71
g1974
sg64
(lp1981
g57
(g78
g59
NtRp1982
(dp1983
g62
(dp1984
g82
g83
ssg71
g1978
sg64
(lp1985
g859
asbag57
(g78
g59
NtRp1986
(dp1987
g62
(dp1988
g89
g90
ssg71
g1978
sg64
(lp1989
S':'
asbag57
(g78
g59
NtRp1990
(dp1991
g62
(dp1992
sg71
g1978
sg64
(lp1993
g57
(g58
g59
NtRp1994
(dp1995
g62
(dp1996
g70
I4
ssg71
g1990
sg64
(lp1997
S"set(['/home/vanshika/vanshu/c pro/itws/itws2/web2py/applications/NOUVELLES_EN_LIGNE/', '/home/vanshika/vanshu/c pro/itws/itws2/web2py/applications/welcome/', '/home/vanshika/vanshu/c pro/itws/itws2/web2py/applications/admin/'])"
p1998
asbasbasbag57
(g73
g59
NtRp1999
(dp2000
g62
(dp2001
sg71
g1974
sg64
(lp2002
g57
(g78
g59
NtRp2003
(dp2004
g62
(dp2005
g82
g83
ssg71
g1999
sg64
(lp2006
g881
asbag57
(g78
g59
NtRp2007
(dp2008
g62
(dp2009
g89
g90
ssg71
g1999
sg64
(lp2010
S':'
asbag57
(g78
g59
NtRp2011
(dp2012
g62
(dp2013
sg71
g1999
sg64
(lp2014
g57
(g58
g59
NtRp2015
(dp2016
g62
(dp2017
g70
I4
ssg71
g2011
sg64
(lp2018
g894
asbasbasbag57
(g73
g59
NtRp2019
(dp2020
g62
(dp2021
sg71
g1974
sg64
(lp2022
g57
(g78
g59
NtRp2023
(dp2024
g62
(dp2025
g82
g83
ssg71
g2019
sg64
(lp2026
g903
asbag57
(g78
g59
NtRp2027
(dp2028
g62
(dp2029
g89
g90
ssg71
g2019
sg64
(lp2030
S':'
asbag57
(g78
g59
NtRp2031
(dp2032
g62
(dp2033
sg71
g2019
sg64
(lp2034
g57
(g58
g59
NtRp2035
(dp2036
g62
(dp2037
g70
I4
ssg71
g2031
sg64
(lp2038
g57
(g66
g59
NtRp2039
(dp2040
g62
(dp2041
g70
I3
ssg71
Nsg64
(lp2042
sbasbasbasbag57
(g73
g59
NtRp2043
(dp2044
g62
(dp2045
sg71
g1974
sg64
(lp2046
g57
(g78
g59
NtRp2047
(dp2048
g62
(dp2049
g82
g83
ssg71
g2043
sg64
(lp2050
g928
asbag57
(g78
g59
NtRp2051
(dp2052
g62
(dp2053
g89
g90
ssg71
g2043
sg64
(lp2054
S':'
asbag57
(g78
g59
NtRp2055
(dp2056
g62
(dp2057
sg71
g2043
sg64
(lp2058
g57
(g58
g59
NtRp2059
(dp2060
g62
(dp2061
g70
I4
ssg71
g2055
sg64
(lp2062
S"<Values at 0x9473a4c: {'verbose': False, 'ip': '127.0.0.1', 'with_scheduler': False, 'ips': [], 'shutdown_timeout': 5, 'taskbar': False, 'port': 8000, 'maxthreads': None, 'softcron': False, 'server_name': 'vanshika-HP-Pavilion-dv6700-Notebook-PC', 'bpython': False, 'nogui': False, 'pid_filename': 'httpserver.pid', 'extcron': False, 'runcron': False, 'run_system_tests': False, 'test': None, 'folder': '/home/vanshika/vanshu/c pro/itws/itws2/web2py', 'config': '', 'import_models': False, 'winservice': '', 'shell': None, 'run': '', 'log_filename': 'httpserver.log', 'debuglevel': 30, 'args': [''], 'socket_timeout': 5, 'ssl_ca_certificate': None, 'scheduler': None, 'profiler_filename': None, 'ssl_private_key': '', 'scheduler_groups': None, 'password': '<ask>', 'request_queue_size': 5, 'ssl_certificate': '', 'cronjob': False, 'numthreads': None, 'quiet': False, 'interfaces': None, 'minthreads': None, 'timeout': 10, 'plain': False, 'nobanner': False}>"
p2063
asbasbasbag57
(g73
g59
NtRp2064
(dp2065
g62
(dp2066
sg71
g1974
sg64
(lp2067
g57
(g78
g59
NtRp2068
(dp2069
g62
(dp2070
g82
g83
ssg71
g2064
sg64
(lp2071
g950
asbag57
(g78
g59
NtRp2072
(dp2073
g62
(dp2074
g89
g90
ssg71
g2064
sg64
(lp2075
S':'
asbag57
(g78
g59
NtRp2076
(dp2077
g62
(dp2078
sg71
g2064
sg64
(lp2079
g57
(g58
g59
NtRp2080
(dp2081
g62
(dp2082
g70
I4
ssg71
g2076
sg64
(lp2083
S'set([])'
p2084
asbasbasbag57
(g73
g59
NtRp2085
(dp2086
g62
(dp2087
sg71
g1974
sg64
(lp2088
g57
(g78
g59
NtRp2089
(dp2090
g62
(dp2091
g82
g83
ssg71
g2085
sg64
(lp2092
g972
asbag57
(g78
g59
NtRp2093
(dp2094
g62
(dp2095
g89
g90
ssg71
g2085
sg64
(lp2096
S':'
asbag57
(g78
g59
NtRp2097
(dp2098
g62
(dp2099
sg71
g2085
sg64
(lp2100
g57
(g58
g59
NtRp2101
(dp2102
g62
(dp2103
g70
I4
ssg71
g2097
sg64
(lp2104
g100
asbasbasbag57
(g73
g59
NtRp2105
(dp2106
g62
(dp2107
sg71
g1974
sg64
(lp2108
g57
(g78
g59
NtRp2109
(dp2110
g62
(dp2111
g82
g83
ssg71
g2105
sg64
(lp2112
g993
asbag57
(g78
g59
NtRp2113
(dp2114
g62
(dp2115
g89
g90
ssg71
g2105
sg64
(lp2116
S':'
asbag57
(g78
g59
NtRp2117
(dp2118
g62
(dp2119
sg71
g2105
sg64
(lp2120
g57
(g58
g59
NtRp2121
(dp2122
g62
(dp2123
g70
I4
ssg71
g2117
sg64
(lp2124
g1006
asbasbasbag57
(g73
g59
NtRp2125
(dp2126
g62
(dp2127
sg71
g1974
sg64
(lp2128
g57
(g78
g59
NtRp2129
(dp2130
g62
(dp2131
g82
g83
ssg71
g2125
sg64
(lp2132
g1191
asbag57
(g78
g59
NtRp2133
(dp2134
g62
(dp2135
g89
g90
ssg71
g2125
sg64
(lp2136
S':'
asbag57
(g78
g59
NtRp2137
(dp2138
g62
(dp2139
sg71
g2125
sg64
(lp2140
g57
(g58
g59
NtRp2141
(dp2142
g62
(dp2143
g70
I4
ssg71
g2137
sg64
(lp2144
g100
asbasbasbag57
(g73
g59
NtRp2145
(dp2146
g62
(dp2147
sg71
g1974
sg64
(lp2148
g57
(g78
g59
NtRp2149
(dp2150
g62
(dp2151
g82
g83
ssg71
g2145
sg64
(lp2152
g1212
asbag57
(g78
g59
NtRp2153
(dp2154
g62
(dp2155
g89
g90
ssg71
g2145
sg64
(lp2156
S':'
asbag57
(g78
g59
NtRp2157
(dp2158
g62
(dp2159
sg71
g2145
sg64
(lp2160
g57
(g58
g59
NtRp2161
(dp2162
g62
(dp2163
g70
I4
ssg71
g2157
sg64
(lp2164
g100
asbasbasbag57
(g73
g59
NtRp2165
(dp2166
g62
(dp2167
sg71
g1974
sg64
(lp2168
g57
(g78
g59
NtRp2169
(dp2170
g62
(dp2171
g82
g83
ssg71
g2165
sg64
(lp2172
g1233
asbag57
(g78
g59
NtRp2173
(dp2174
g62
(dp2175
g89
g90
ssg71
g2165
sg64
(lp2176
S':'
asbag57
(g78
g59
NtRp2177
(dp2178
g62
(dp2179
sg71
g2165
sg64
(lp2180
g57
(g58
g59
NtRp2181
(dp2182
g62
(dp2183
g70
I4
ssg71
g2177
sg64
(lp2184
g57
(g66
g59
NtRp2185
(dp2186
g62
(dp2187
g70
I3
ssg71
Nsg64
(lp2188
g57
(g73
g59
NtRp2189
(dp2190
g62
(dp2191
sg71
g2185
sg64
(lp2192
g57
(g78
g59
NtRp2193
(dp2194
g62
(dp2195
sg71
g2189
sg64
(lp2196
g57
(g58
g59
NtRp2197
(dp2198
g62
(dp2199
g70
I3
ssg71
g2193
sg64
(lp2200
g1262
asbasbasbag57
(g73
g59
NtRp2201
(dp2202
g62
(dp2203
sg71
g2185
sg64
(lp2204
g57
(g78
g59
NtRp2205
(dp2206
g62
(dp2207
sg71
g2201
sg64
(lp2208
g57
(g58
g59
NtRp2209
(dp2210
g62
(dp2211
g70
I3
ssg71
g2205
sg64
(lp2212
g1275
asbasbasbag57
(g73
g59
NtRp2213
(dp2214
g62
(dp2215
sg71
g2185
sg64
(lp2216
g57
(g78
g59
NtRp2217
(dp2218
g62
(dp2219
sg71
g2213
sg64
(lp2220
g57
(g58
g59
NtRp2221
(dp2222
g62
(dp2223
g70
I3
ssg71
g2217
sg64
(lp2224
g1288
asbasbasbag57
(g73
g59
NtRp2225
(dp2226
g62
(dp2227
sg71
g2185
sg64
(lp2228
g57
(g78
g59
NtRp2229
(dp2230
g62
(dp2231
sg71
g2225
sg64
(lp2232
g57
(g58
g59
NtRp2233
(dp2234
g62
(dp2235
g70
I3
ssg71
g2229
sg64
(lp2236
g1301
asbasbasbag57
(g73
g59
NtRp2237
(dp2238
g62
(dp2239
sg71
g2185
sg64
(lp2240
g57
(g78
g59
NtRp2241
(dp2242
g62
(dp2243
sg71
g2237
sg64
(lp2244
g57
(g58
g59
NtRp2245
(dp2246
g62
(dp2247
g70
I3
ssg71
g2241
sg64
(lp2248
g1314
asbasbasbasbasbasbasbag57
(g73
g59
NtRp2249
(dp2250
g62
(dp2251
sg71
g1974
sg64
(lp2252
g57
(g78
g59
NtRp2253
(dp2254
g62
(dp2255
g82
g83
ssg71
g2249
sg64
(lp2256
g1582
asbag57
(g78
g59
NtRp2257
(dp2258
g62
(dp2259
g89
g90
ssg71
g2249
sg64
(lp2260
S':'
asbag57
(g78
g59
NtRp2261
(dp2262
g62
(dp2263
sg71
g2249
sg64
(lp2264
g57
(g58
g59
NtRp2265
(dp2266
g62
(dp2267
g70
I4
ssg71
g2261
sg64
(lp2268
g57
(g66
g59
NtRp2269
(dp2270
g62
(dp2271
g70
I3
ssg71
Nsg64
(lp2272
g57
(g73
g59
NtRp2273
(dp2274
g62
(dp2275
sg71
g2269
sg64
(lp2276
g57
(g78
g59
NtRp2277
(dp2278
g62
(dp2279
sg71
g2273
sg64
(lp2280
g57
(g58
g59
NtRp2281
(dp2282
g62
(dp2283
g70
I3
ssg71
g2277
sg64
(lp2284
S'2'
asbasbasbag57
(g73
g59
NtRp2285
(dp2286
g62
(dp2287
sg71
g2269
sg64
(lp2288
g57
(g78
g59
NtRp2289
(dp2290
g62
(dp2291
sg71
g2285
sg64
(lp2292
g57
(g58
g59
NtRp2293
(dp2294
g62
(dp2295
g70
I3
ssg71
g2289
sg64
(lp2296
S'3'
asbasbasbag57
(g73
g59
NtRp2297
(dp2298
g62
(dp2299
sg71
g2269
sg64
(lp2300
g57
(g78
g59
NtRp2301
(dp2302
g62
(dp2303
sg71
g2297
sg64
(lp2304
g57
(g58
g59
NtRp2305
(dp2306
g62
(dp2307
g70
I3
ssg71
g2301
sg64
(lp2308
S'2'
asbasbasbag57
(g73
g59
NtRp2309
(dp2310
g62
(dp2311
sg71
g2269
sg64
(lp2312
g57
(g78
g59
NtRp2313
(dp2314
g62
(dp2315
sg71
g2309
sg64
(lp2316
g57
(g58
g59
NtRp2317
(dp2318
g62
(dp2319
g70
I3
ssg71
g2313
sg64
(lp2320
S'datetime.datetime(2012, 12, 17, 15, 3, 30)'
p2321
asbasbasbag57
(g73
g59
NtRp2322
(dp2323
g62
(dp2324
sg71
g2269
sg64
(lp2325
g57
(g78
g59
NtRp2326
(dp2327
g62
(dp2328
sg71
g2322
sg64
(lp2329
g57
(g58
g59
NtRp2330
(dp2331
g62
(dp2332
g70
I3
ssg71
g2326
sg64
(lp2333
g1660
asbasbasbasbasbasbasbasbasbasbasbag57
(g73
g59
NtRp2334
(dp2335
g62
(dp2336
sg71
g67
sg64
(lp2337
g57
(g78
g59
NtRp2338
(dp2339
g62
(dp2340
g82
g83
ssg71
g2334
sg64
(lp2341
S'is_https'
p2342
asbag57
(g78
g59
NtRp2343
(dp2344
g62
(dp2345
g89
g90
ssg71
g2334
sg64
(lp2346
S':'
asbag57
(g78
g59
NtRp2347
(dp2348
g62
(dp2349
sg71
g2334
sg64
(lp2350
g57
(g58
g59
NtRp2351
(dp2352
g62
(dp2353
g70
I5
ssg71
g2347
sg64
(lp2354
g100
asbasbasbag57
(g73
g59
NtRp2355
(dp2356
g62
(dp2357
sg71
g67
sg64
(lp2358
g57
(g78
g59
NtRp2359
(dp2360
g62
(dp2361
g82
g83
ssg71
g2355
sg64
(lp2362
S'is_local'
p2363
asbag57
(g78
g59
NtRp2364
(dp2365
g62
(dp2366
g89
g90
ssg71
g2355
sg64
(lp2367
S':'
asbag57
(g78
g59
NtRp2368
(dp2369
g62
(dp2370
sg71
g2355
sg64
(lp2371
g57
(g58
g59
NtRp2372
(dp2373
g62
(dp2374
g70
I5
ssg71
g2368
sg64
(lp2375
g1769
asbasbasbag57
(g73
g59
NtRp2376
(dp2377
g62
(dp2378
sg71
g67
sg64
(lp2379
g57
(g78
g59
NtRp2380
(dp2381
g62
(dp2382
g82
g83
ssg71
g2376
sg64
(lp2383
S'is_restful'
p2384
asbag57
(g78
g59
NtRp2385
(dp2386
g62
(dp2387
g89
g90
ssg71
g2376
sg64
(lp2388
S':'
asbag57
(g78
g59
NtRp2389
(dp2390
g62
(dp2391
sg71
g2376
sg64
(lp2392
g57
(g58
g59
NtRp2393
(dp2394
g62
(dp2395
g70
I5
ssg71
g2389
sg64
(lp2396
g100
asbasbasbag57
(g73
g59
NtRp2397
(dp2398
g62
(dp2399
sg71
g67
sg64
(lp2400
g57
(g78
g59
NtRp2401
(dp2402
g62
(dp2403
g82
g83
ssg71
g2397
sg64
(lp2404
S'now'
p2405
asbag57
(g78
g59
NtRp2406
(dp2407
g62
(dp2408
g89
g90
ssg71
g2397
sg64
(lp2409
S':'
asbag57
(g78
g59
NtRp2410
(dp2411
g62
(dp2412
sg71
g2397
sg64
(lp2413
g57
(g58
g59
NtRp2414
(dp2415
g62
(dp2416
g70
I5
ssg71
g2410
sg64
(lp2417
S'datetime.datetime(2013, 9, 2, 22, 22, 50, 920473)'
p2418
asbasbasbag57
(g73
g59
NtRp2419
(dp2420
g62
(dp2421
sg71
g67
sg64
(lp2422
g57
(g78
g59
NtRp2423
(dp2424
g62
(dp2425
g82
g83
ssg71
g2419
sg64
(lp2426
S'post_vars'
p2427
asbag57
(g78
g59
NtRp2428
(dp2429
g62
(dp2430
g89
g90
ssg71
g2419
sg64
(lp2431
S':'
asbag57
(g78
g59
NtRp2432
(dp2433
g62
(dp2434
sg71
g2419
sg64
(lp2435
g57
(g58
g59
NtRp2436
(dp2437
g62
(dp2438
g70
I5
ssg71
g2432
sg64
(lp2439
g57
(g66
g59
NtRp2440
(dp2441
g62
(dp2442
g70
I4
ssg71
Nsg64
(lp2443
sbasbasbasbag57
(g73
g59
NtRp2444
(dp2445
g62
(dp2446
sg71
g67
sg64
(lp2447
g57
(g78
g59
NtRp2448
(dp2449
g62
(dp2450
g82
g83
ssg71
g2444
sg64
(lp2451
S'raw_args'
p2452
asbag57
(g78
g59
NtRp2453
(dp2454
g62
(dp2455
g89
g90
ssg71
g2444
sg64
(lp2456
S':'
asbag57
(g78
g59
NtRp2457
(dp2458
g62
(dp2459
sg71
g2444
sg64
(lp2460
g57
(g58
g59
NtRp2461
(dp2462
g62
(dp2463
g70
I5
ssg71
g2457
sg64
(lp2464
S''
asbasbasbag57
(g73
g59
NtRp2465
(dp2466
g62
(dp2467
sg71
g67
sg64
(lp2468
g57
(g78
g59
NtRp2469
(dp2470
g62
(dp2471
g82
g83
ssg71
g2465
sg64
(lp2472
S'raw_extension'
p2473
asbag57
(g78
g59
NtRp2474
(dp2475
g62
(dp2476
g89
g90
ssg71
g2465
sg64
(lp2477
S':'
asbag57
(g78
g59
NtRp2478
(dp2479
g62
(dp2480
sg71
g2465
sg64
(lp2481
g57
(g58
g59
NtRp2482
(dp2483
g62
(dp2484
g70
I5
ssg71
g2478
sg64
(lp2485
S'None'
p2486
asbasbasbag57
(g73
g59
NtRp2487
(dp2488
g62
(dp2489
sg71
g67
sg64
(lp2490
g57
(g78
g59
NtRp2491
(dp2492
g62
(dp2493
g82
g83
ssg71
g2487
sg64
(lp2494
S'url'
p2495
asbag57
(g78
g59
NtRp2496
(dp2497
g62
(dp2498
g89
g90
ssg71
g2487
sg64
(lp2499
S':'
asbag57
(g78
g59
NtRp2500
(dp2501
g62
(dp2502
sg71
g2487
sg64
(lp2503
g57
(g58
g59
NtRp2504
(dp2505
g62
(dp2506
g70
I5
ssg71
g2500
sg64
(lp2507
g1336
asbasbasbag57
(g73
g59
NtRp2508
(dp2509
g62
(dp2510
sg71
g67
sg64
(lp2511
g57
(g78
g59
NtRp2512
(dp2513
g62
(dp2514
g82
g83
ssg71
g2508
sg64
(lp2515
S'utcnow'
p2516
asbag57
(g78
g59
NtRp2517
(dp2518
g62
(dp2519
g89
g90
ssg71
g2508
sg64
(lp2520
S':'
asbag57
(g78
g59
NtRp2521
(dp2522
g62
(dp2523
sg71
g2508
sg64
(lp2524
g57
(g58
g59
NtRp2525
(dp2526
g62
(dp2527
g70
I5
ssg71
g2521
sg64
(lp2528
S'datetime.datetime(2013, 9, 2, 16, 52, 50, 920508)'
p2529
asbasbasbag57
(g73
g59
NtRp2530
(dp2531
g62
(dp2532
sg71
g67
sg64
(lp2533
g57
(g78
g59
NtRp2534
(dp2535
g62
(dp2536
g82
g83
ssg71
g2530
sg64
(lp2537
S'uuid'
p2538
asbag57
(g78
g59
NtRp2539
(dp2540
g62
(dp2541
g89
g90
ssg71
g2530
sg64
(lp2542
S':'
asbag57
(g78
g59
NtRp2543
(dp2544
g62
(dp2545
sg71
g2530
sg64
(lp2546
g57
(g58
g59
NtRp2547
(dp2548
g62
(dp2549
g70
I5
ssg71
g2543
sg64
(lp2550
S'NOUVELLES_EN_LIGNE/127.0.0.1.2013-09-02.22-22-50.3c8178cc-99de-4616-b6d5-dfd66eb8cbbf'
p2551
asbasbasbag57
(g73
g59
NtRp2552
(dp2553
g62
(dp2554
sg71
g67
sg64
(lp2555
g57
(g78
g59
NtRp2556
(dp2557
g62
(dp2558
g82
g83
ssg71
g2552
sg64
(lp2559
S'vars'
p2560
asbag57
(g78
g59
NtRp2561
(dp2562
g62
(dp2563
g89
g90
ssg71
g2552
sg64
(lp2564
S':'
asbag57
(g78
g59
NtRp2565
(dp2566
g62
(dp2567
sg71
g2552
sg64
(lp2568
g57
(g58
g59
NtRp2569
(dp2570
g62
(dp2571
g70
I5
ssg71
g2565
sg64
(lp2572
g57
(g66
g59
NtRp2573
(dp2574
g62
(dp2575
g70
I4
ssg71
Nsg64
(lp2576
sbasbasbasbag57
(g73
g59
NtRp2577
(dp2578
g62
(dp2579
sg71
g67
sg64
(lp2580
g57
(g78
g59
NtRp2581
(dp2582
g62
(dp2583
g82
g83
ssg71
g2577
sg64
(lp2584
S'wsgi'
p2585
asbag57
(g78
g59
NtRp2586
(dp2587
g62
(dp2588
g89
g90
ssg71
g2577
sg64
(lp2589
S':'
asbag57
(g78
g59
NtRp2590
(dp2591
g62
(dp2592
sg71
g2577
sg64
(lp2593
g57
(g58
g59
NtRp2594
(dp2595
g62
(dp2596
g70
I5
ssg71
g2590
sg64
(lp2597
g57
(g66
g59
NtRp2598
(dp2599
g62
(dp2600
g70
I4
ssg71
Nsg64
(lp2601
g57
(g73
g59
NtRp2602
(dp2603
g62
(dp2604
sg71
g2598
sg64
(lp2605
g57
(g78
g59
NtRp2606
(dp2607
g62
(dp2608
g82
g83
ssg71
g2602
sg64
(lp2609
S'environ'
p2610
asbag57
(g78
g59
NtRp2611
(dp2612
g62
(dp2613
g89
g90
ssg71
g2602
sg64
(lp2614
S':'
asbag57
(g78
g59
NtRp2615
(dp2616
g62
(dp2617
sg71
g2602
sg64
(lp2618
g57
(g58
g59
NtRp2619
(dp2620
g62
(dp2621
g70
I4
ssg71
g2615
sg64
(lp2622
g57
(g66
g59
NtRp2623
(dp2624
g62
(dp2625
g70
I3
ssg71
Nsg64
(lp2626
g57
(g73
g59
NtRp2627
(dp2628
g62
(dp2629
sg71
g2623
sg64
(lp2630
g57
(g78
g59
NtRp2631
(dp2632
g62
(dp2633
g82
g83
ssg71
g2627
sg64
(lp2634
S'HTTP_ACCEPT'
p2635
asbag57
(g78
g59
NtRp2636
(dp2637
g62
(dp2638
g89
g90
ssg71
g2627
sg64
(lp2639
S':'
asbag57
(g78
g59
NtRp2640
(dp2641
g62
(dp2642
sg71
g2627
sg64
(lp2643
g57
(g58
g59
NtRp2644
(dp2645
g62
(dp2646
g70
I3
ssg71
g2640
sg64
(lp2647
g1028
asbasbasbag57
(g73
g59
NtRp2648
(dp2649
g62
(dp2650
sg71
g2623
sg64
(lp2651
g57
(g78
g59
NtRp2652
(dp2653
g62
(dp2654
g82
g83
ssg71
g2648
sg64
(lp2655
S'HTTP_ACCEPT_ENCODING'
p2656
asbag57
(g78
g59
NtRp2657
(dp2658
g62
(dp2659
g89
g90
ssg71
g2648
sg64
(lp2660
S':'
asbag57
(g78
g59
NtRp2661
(dp2662
g62
(dp2663
sg71
g2648
sg64
(lp2664
g57
(g58
g59
NtRp2665
(dp2666
g62
(dp2667
g70
I3
ssg71
g2661
sg64
(lp2668
g1050
asbasbasbag57
(g73
g59
NtRp2669
(dp2670
g62
(dp2671
sg71
g2623
sg64
(lp2672
g57
(g78
g59
NtRp2673
(dp2674
g62
(dp2675
g82
g83
ssg71
g2669
sg64
(lp2676
S'HTTP_ACCEPT_LANGUAGE'
p2677
asbag57
(g78
g59
NtRp2678
(dp2679
g62
(dp2680
g89
g90
ssg71
g2669
sg64
(lp2681
S':'
asbag57
(g78
g59
NtRp2682
(dp2683
g62
(dp2684
sg71
g2669
sg64
(lp2685
g57
(g58
g59
NtRp2686
(dp2687
g62
(dp2688
g70
I3
ssg71
g2682
sg64
(lp2689
g1072
asbasbasbag57
(g73
g59
NtRp2690
(dp2691
g62
(dp2692
sg71
g2623
sg64
(lp2693
g57
(g78
g59
NtRp2694
(dp2695
g62
(dp2696
g82
g83
ssg71
g2690
sg64
(lp2697
S'HTTP_CONNECTION'
p2698
asbag57
(g78
g59
NtRp2699
(dp2700
g62
(dp2701
g89
g90
ssg71
g2690
sg64
(lp2702
S':'
asbag57
(g78
g59
NtRp2703
(dp2704
g62
(dp2705
sg71
g2690
sg64
(lp2706
g57
(g58
g59
NtRp2707
(dp2708
g62
(dp2709
g70
I3
ssg71
g2703
sg64
(lp2710
g1094
asbasbasbag57
(g73
g59
NtRp2711
(dp2712
g62
(dp2713
sg71
g2623
sg64
(lp2714
g57
(g78
g59
NtRp2715
(dp2716
g62
(dp2717
g82
g83
ssg71
g2711
sg64
(lp2718
S'HTTP_COOKIE'
p2719
asbag57
(g78
g59
NtRp2720
(dp2721
g62
(dp2722
g89
g90
ssg71
g2711
sg64
(lp2723
S':'
asbag57
(g78
g59
NtRp2724
(dp2725
g62
(dp2726
sg71
g2711
sg64
(lp2727
g57
(g58
g59
NtRp2728
(dp2729
g62
(dp2730
g70
I3
ssg71
g2724
sg64
(lp2731
g1116
asbasbasbag57
(g73
g59
NtRp2732
(dp2733
g62
(dp2734
sg71
g2623
sg64
(lp2735
g57
(g78
g59
NtRp2736
(dp2737
g62
(dp2738
g82
g83
ssg71
g2732
sg64
(lp2739
S'HTTP_HOST'
p2740
asbag57
(g78
g59
NtRp2741
(dp2742
g62
(dp2743
g89
g90
ssg71
g2732
sg64
(lp2744
S':'
asbag57
(g78
g59
NtRp2745
(dp2746
g62
(dp2747
sg71
g2732
sg64
(lp2748
g57
(g58
g59
NtRp2749
(dp2750
g62
(dp2751
g70
I3
ssg71
g2745
sg64
(lp2752
g1138
asbasbasbag57
(g73
g59
NtRp2753
(dp2754
g62
(dp2755
sg71
g2623
sg64
(lp2756
g57
(g78
g59
NtRp2757
(dp2758
g62
(dp2759
g82
g83
ssg71
g2753
sg64
(lp2760
S'HTTP_REFERER'
p2761
asbag57
(g78
g59
NtRp2762
(dp2763
g62
(dp2764
g89
g90
ssg71
g2753
sg64
(lp2765
S':'
asbag57
(g78
g59
NtRp2766
(dp2767
g62
(dp2768
sg71
g2753
sg64
(lp2769
g57
(g58
g59
NtRp2770
(dp2771
g62
(dp2772
g70
I3
ssg71
g2766
sg64
(lp2773
g1160
asbasbasbag57
(g73
g59
NtRp2774
(dp2775
g62
(dp2776
sg71
g2623
sg64
(lp2777
g57
(g78
g59
NtRp2778
(dp2779
g62
(dp2780
g82
g83
ssg71
g2774
sg64
(lp2781
S'HTTP_USER_AGENT'
p2782
asbag57
(g78
g59
NtRp2783
(dp2784
g62
(dp2785
g89
g90
ssg71
g2774
sg64
(lp2786
S':'
asbag57
(g78
g59
NtRp2787
(dp2788
g62
(dp2789
sg71
g2774
sg64
(lp2790
g57
(g58
g59
NtRp2791
(dp2792
g62
(dp2793
g70
I3
ssg71
g2787
sg64
(lp2794
g1182
asbasbasbag57
(g73
g59
NtRp2795
(dp2796
g62
(dp2797
sg71
g2623
sg64
(lp2798
g57
(g78
g59
NtRp2799
(dp2800
g62
(dp2801
g82
g83
ssg71
g2795
sg64
(lp2802
S'PATH_INFO'
p2803
asbag57
(g78
g59
NtRp2804
(dp2805
g62
(dp2806
g89
g90
ssg71
g2795
sg64
(lp2807
S':'
asbag57
(g78
g59
NtRp2808
(dp2809
g62
(dp2810
sg71
g2795
sg64
(lp2811
g57
(g58
g59
NtRp2812
(dp2813
g62
(dp2814
g70
I3
ssg71
g2808
sg64
(lp2815
g1336
asbasbasbag57
(g73
g59
NtRp2816
(dp2817
g62
(dp2818
sg71
g2623
sg64
(lp2819
g57
(g78
g59
NtRp2820
(dp2821
g62
(dp2822
g82
g83
ssg71
g2816
sg64
(lp2823
S'QUERY_STRING'
p2824
asbag57
(g78
g59
NtRp2825
(dp2826
g62
(dp2827
g89
g90
ssg71
g2816
sg64
(lp2828
S':'
asbag57
(g78
g59
NtRp2829
(dp2830
g62
(dp2831
sg71
g2816
sg64
(lp2832
g57
(g58
g59
NtRp2833
(dp2834
g62
(dp2835
g70
I3
ssg71
g2829
sg64
(lp2836
S''
asbasbasbag57
(g73
g59
NtRp2837
(dp2838
g62
(dp2839
sg71
g2623
sg64
(lp2840
g57
(g78
g59
NtRp2841
(dp2842
g62
(dp2843
g82
g83
ssg71
g2837
sg64
(lp2844
S'REMOTE_ADDR'
p2845
asbag57
(g78
g59
NtRp2846
(dp2847
g62
(dp2848
g89
g90
ssg71
g2837
sg64
(lp2849
S':'
asbag57
(g78
g59
NtRp2850
(dp2851
g62
(dp2852
sg71
g2837
sg64
(lp2853
g57
(g58
g59
NtRp2854
(dp2855
g62
(dp2856
g70
I3
ssg71
g2850
sg64
(lp2857
g212
asbasbasbag57
(g73
g59
NtRp2858
(dp2859
g62
(dp2860
sg71
g2623
sg64
(lp2861
g57
(g78
g59
NtRp2862
(dp2863
g62
(dp2864
g82
g83
ssg71
g2858
sg64
(lp2865
S'REMOTE_PORT'
p2866
asbag57
(g78
g59
NtRp2867
(dp2868
g62
(dp2869
g89
g90
ssg71
g2858
sg64
(lp2870
S':'
asbag57
(g78
g59
NtRp2871
(dp2872
g62
(dp2873
sg71
g2858
sg64
(lp2874
g57
(g58
g59
NtRp2875
(dp2876
g62
(dp2877
g70
I3
ssg71
g2871
sg64
(lp2878
g1400
asbasbasbag57
(g73
g59
NtRp2879
(dp2880
g62
(dp2881
sg71
g2623
sg64
(lp2882
g57
(g78
g59
NtRp2883
(dp2884
g62
(dp2885
g82
g83
ssg71
g2879
sg64
(lp2886
S'REQUEST_METHOD'
p2887
asbag57
(g78
g59
NtRp2888
(dp2889
g62
(dp2890
g89
g90
ssg71
g2879
sg64
(lp2891
S':'
asbag57
(g78
g59
NtRp2892
(dp2893
g62
(dp2894
sg71
g2879
sg64
(lp2895
g57
(g58
g59
NtRp2896
(dp2897
g62
(dp2898
g70
I3
ssg71
g2892
sg64
(lp2899
g1422
asbasbasbag57
(g73
g59
NtRp2900
(dp2901
g62
(dp2902
sg71
g2623
sg64
(lp2903
g57
(g78
g59
NtRp2904
(dp2905
g62
(dp2906
g82
g83
ssg71
g2900
sg64
(lp2907
S'REQUEST_URI'
p2908
asbag57
(g78
g59
NtRp2909
(dp2910
g62
(dp2911
g89
g90
ssg71
g2900
sg64
(lp2912
S':'
asbag57
(g78
g59
NtRp2913
(dp2914
g62
(dp2915
sg71
g2900
sg64
(lp2916
g57
(g58
g59
NtRp2917
(dp2918
g62
(dp2919
g70
I3
ssg71
g2913
sg64
(lp2920
g1336
asbasbasbag57
(g73
g59
NtRp2921
(dp2922
g62
(dp2923
sg71
g2623
sg64
(lp2924
g57
(g78
g59
NtRp2925
(dp2926
g62
(dp2927
g82
g83
ssg71
g2921
sg64
(lp2928
S'SCRIPT_NAME'
p2929
asbag57
(g78
g59
NtRp2930
(dp2931
g62
(dp2932
g89
g90
ssg71
g2921
sg64
(lp2933
S':'
asbag57
(g78
g59
NtRp2934
(dp2935
g62
(dp2936
sg71
g2921
sg64
(lp2937
g57
(g58
g59
NtRp2938
(dp2939
g62
(dp2940
g70
I3
ssg71
g2934
sg64
(lp2941
S''
asbasbasbag57
(g73
g59
NtRp2942
(dp2943
g62
(dp2944
sg71
g2623
sg64
(lp2945
g57
(g78
g59
NtRp2946
(dp2947
g62
(dp2948
g82
g83
ssg71
g2942
sg64
(lp2949
S'SERVER_NAME'
p2950
asbag57
(g78
g59
NtRp2951
(dp2952
g62
(dp2953
g89
g90
ssg71
g2942
sg64
(lp2954
S':'
asbag57
(g78
g59
NtRp2955
(dp2956
g62
(dp2957
sg71
g2942
sg64
(lp2958
g57
(g58
g59
NtRp2959
(dp2960
g62
(dp2961
g70
I3
ssg71
g2955
sg64
(lp2962
g1486
asbasbasbag57
(g73
g59
NtRp2963
(dp2964
g62
(dp2965
sg71
g2623
sg64
(lp2966
g57
(g78
g59
NtRp2967
(dp2968
g62
(dp2969
g82
g83
ssg71
g2963
sg64
(lp2970
S'SERVER_PORT'
p2971
asbag57
(g78
g59
NtRp2972
(dp2973
g62
(dp2974
g89
g90
ssg71
g2963
sg64
(lp2975
S':'
asbag57
(g78
g59
NtRp2976
(dp2977
g62
(dp2978
sg71
g2963
sg64
(lp2979
g57
(g58
g59
NtRp2980
(dp2981
g62
(dp2982
g70
I3
ssg71
g2976
sg64
(lp2983
g1508
asbasbasbag57
(g73
g59
NtRp2984
(dp2985
g62
(dp2986
sg71
g2623
sg64
(lp2987
g57
(g78
g59
NtRp2988
(dp2989
g62
(dp2990
g82
g83
ssg71
g2984
sg64
(lp2991
S'SERVER_PROTOCOL'
p2992
asbag57
(g78
g59
NtRp2993
(dp2994
g62
(dp2995
g89
g90
ssg71
g2984
sg64
(lp2996
S':'
asbag57
(g78
g59
NtRp2997
(dp2998
g62
(dp2999
sg71
g2984
sg64
(lp3000
g57
(g58
g59
NtRp3001
(dp3002
g62
(dp3003
g70
I3
ssg71
g2997
sg64
(lp3004
g1530
asbasbasbag57
(g73
g59
NtRp3005
(dp3006
g62
(dp3007
sg71
g2623
sg64
(lp3008
g57
(g78
g59
NtRp3009
(dp3010
g62
(dp3011
g82
g83
ssg71
g3005
sg64
(lp3012
S'SERVER_SOFTWARE'
p3013
asbag57
(g78
g59
NtRp3014
(dp3015
g62
(dp3016
g89
g90
ssg71
g3005
sg64
(lp3017
S':'
asbag57
(g78
g59
NtRp3018
(dp3019
g62
(dp3020
sg71
g3005
sg64
(lp3021
g57
(g58
g59
NtRp3022
(dp3023
g62
(dp3024
g70
I3
ssg71
g3018
sg64
(lp3025
g1552
asbasbasbag57
(g73
g59
NtRp3026
(dp3027
g62
(dp3028
sg71
g2623
sg64
(lp3029
g57
(g78
g59
NtRp3030
(dp3031
g62
(dp3032
g82
g83
ssg71
g3026
sg64
(lp3033
S'wsgi.errors'
p3034
asbag57
(g78
g59
NtRp3035
(dp3036
g62
(dp3037
g89
g90
ssg71
g3026
sg64
(lp3038
S':'
asbag57
(g78
g59
NtRp3039
(dp3040
g62
(dp3041
sg71
g3026
sg64
(lp3042
g57
(g58
g59
NtRp3043
(dp3044
g62
(dp3045
g70
I3
ssg71
g3039
sg64
(lp3046
S"<open file '<stderr>', mode 'w' at 0xb72840d0>"
p3047
asbasbasbag57
(g73
g59
NtRp3048
(dp3049
g62
(dp3050
sg71
g2623
sg64
(lp3051
g57
(g78
g59
NtRp3052
(dp3053
g62
(dp3054
g82
g83
ssg71
g3048
sg64
(lp3055
S'wsgi.file_wrapper'
p3056
asbag57
(g78
g59
NtRp3057
(dp3058
g62
(dp3059
g89
g90
ssg71
g3048
sg64
(lp3060
S':'
asbag57
(g78
g59
NtRp3061
(dp3062
g62
(dp3063
sg71
g3048
sg64
(lp3064
g57
(g58
g59
NtRp3065
(dp3066
g62
(dp3067
g70
I3
ssg71
g3061
sg64
(lp3068
S'<class wsgiref.util.FileWrapper at 0x943765c>'
p3069
asbasbasbag57
(g73
g59
NtRp3070
(dp3071
g62
(dp3072
sg71
g2623
sg64
(lp3073
g57
(g78
g59
NtRp3074
(dp3075
g62
(dp3076
g82
g83
ssg71
g3070
sg64
(lp3077
S'wsgi.input'
p3078
asbag57
(g78
g59
NtRp3079
(dp3080
g62
(dp3081
g89
g90
ssg71
g3070
sg64
(lp3082
S':'
asbag57
(g78
g59
NtRp3083
(dp3084
g62
(dp3085
sg71
g3070
sg64
(lp3086
g57
(g58
g59
NtRp3087
(dp3088
g62
(dp3089
g70
I3
ssg71
g3083
sg64
(lp3090
S'<cStringIO.StringO object at 0x9929080>'
p3091
asbasbasbag57
(g73
g59
NtRp3092
(dp3093
g62
(dp3094
sg71
g2623
sg64
(lp3095
g57
(g78
g59
NtRp3096
(dp3097
g62
(dp3098
g82
g83
ssg71
g3092
sg64
(lp3099
S'wsgi.multiprocess'
p3100
asbag57
(g78
g59
NtRp3101
(dp3102
g62
(dp3103
g89
g90
ssg71
g3092
sg64
(lp3104
S':'
asbag57
(g78
g59
NtRp3105
(dp3106
g62
(dp3107
sg71
g3092
sg64
(lp3108
g57
(g58
g59
NtRp3109
(dp3110
g62
(dp3111
g70
I3
ssg71
g3105
sg64
(lp3112
g100
asbasbasbag57
(g73
g59
NtRp3113
(dp3114
g62
(dp3115
sg71
g2623
sg64
(lp3116
g57
(g78
g59
NtRp3117
(dp3118
g62
(dp3119
g82
g83
ssg71
g3113
sg64
(lp3120
S'wsgi.multithread'
p3121
asbag57
(g78
g59
NtRp3122
(dp3123
g62
(dp3124
g89
g90
ssg71
g3113
sg64
(lp3125
S':'
asbag57
(g78
g59
NtRp3126
(dp3127
g62
(dp3128
sg71
g3113
sg64
(lp3129
g57
(g58
g59
NtRp3130
(dp3131
g62
(dp3132
g70
I3
ssg71
g3126
sg64
(lp3133
g1769
asbasbasbag57
(g73
g59
NtRp3134
(dp3135
g62
(dp3136
sg71
g2623
sg64
(lp3137
g57
(g78
g59
NtRp3138
(dp3139
g62
(dp3140
g82
g83
ssg71
g3134
sg64
(lp3141
S'wsgi.run_once'
p3142
asbag57
(g78
g59
NtRp3143
(dp3144
g62
(dp3145
g89
g90
ssg71
g3134
sg64
(lp3146
S':'
asbag57
(g78
g59
NtRp3147
(dp3148
g62
(dp3149
sg71
g3134
sg64
(lp3150
g57
(g58
g59
NtRp3151
(dp3152
g62
(dp3153
g70
I3
ssg71
g3147
sg64
(lp3154
g100
asbasbasbag57
(g73
g59
NtRp3155
(dp3156
g62
(dp3157
sg71
g2623
sg64
(lp3158
g57
(g78
g59
NtRp3159
(dp3160
g62
(dp3161
g82
g83
ssg71
g3155
sg64
(lp3162
S'wsgi.url_scheme'
p3163
asbag57
(g78
g59
NtRp3164
(dp3165
g62
(dp3166
g89
g90
ssg71
g3155
sg64
(lp3167
S':'
asbag57
(g78
g59
NtRp3168
(dp3169
g62
(dp3170
sg71
g3155
sg64
(lp3171
g57
(g58
g59
NtRp3172
(dp3173
g62
(dp3174
g70
I3
ssg71
g3168
sg64
(lp3175
g1812
asbasbasbag57
(g73
g59
NtRp3176
(dp3177
g62
(dp3178
sg71
g2623
sg64
(lp3179
g57
(g78
g59
NtRp3180
(dp3181
g62
(dp3182
g82
g83
ssg71
g3176
sg64
(lp3183
S'wsgi.version'
p3184
asbag57
(g78
g59
NtRp3185
(dp3186
g62
(dp3187
g89
g90
ssg71
g3176
sg64
(lp3188
S':'
asbag57
(g78
g59
NtRp3189
(dp3190
g62
(dp3191
sg71
g3176
sg64
(lp3192
g57
(g58
g59
NtRp3193
(dp3194
g62
(dp3195
g70
I3
ssg71
g3189
sg64
(lp3196
S'1'
asbasbasbasbasbasbasbasbasbasbasbasbasbsS'frames'
p3197
(lp3198
(dp3199
S'file'
p3200
S'/home/vanshika/vanshu/c pro/itws/itws2/web2py/gluon/restricted.py'
p3201
sS'dump'
p3202
(dp3203
S'environment'
p3204
S"{'A': <class 'gluon.html.A'>, 'Auth': <class 'gluon.tools.Auth'>, 'B': <class 'gluon.html.B'>, 'BEAUTIFY': <class 'gluon.html.BEAUTIFY'>, 'BODY': <class 'gluon.html.BODY'>, 'BR': <class 'gluon.html.BR'>, 'BUTTON': <class 'gluon.html.BUTTON'>, 'CAT': <class 'gluon.html.CAT'>, 'CENTER': <class 'gluon.html.CENTER'>, 'CLEANUP': <class 'gluon.validators.CLEANUP'>, ...}"
p3205
sS'ccode'
p3206
S'<code object <module> at 0x9c7c848, file "/home/...VELLES_EN_LIGNE/controllers/default.py", line 13>'
p3207
ssS'lnum'
p3208
I212
sS'lines'
p3209
(dp3210
I207
S'    try:'
p3211
sI208
S'        if isinstance(code, types.CodeType):'
p3212
sI209
S'            ccode = code'
p3213
sI210
S'        else:'
p3214
sI211
S'            ccode = compile2(code, layer)'
p3215
sI212
S'        exec ccode in environment'
p3216
sI213
S'    except HTTP:'
p3217
sI214
S'        raise'
p3218
sI215
S'    except RestrictedError:'
p3219
sI216
S'        # do not encapsulate (obfuscate) the original RestrictedError'
p3220
ssS'call'
p3221
S"(code='# -*- coding: utf-8 -*-\\n# this file is released ...r_login)\\n\\nresponse._vars=response._caller(index)\\n', environment={'A': <class 'gluon.html.A'>, 'Auth': <class 'gluon.tools.Auth'>, 'B': <class 'gluon.html.B'>, 'BEAUTIFY': <class 'gluon.html.BEAUTIFY'>, 'BODY': <class 'gluon.html.BODY'>, 'BR': <class 'gluon.html.BR'>, 'BUTTON': <class 'gluon.html.BUTTON'>, 'CAT': <class 'gluon.html.CAT'>, 'CENTER': <class 'gluon.html.CENTER'>, 'CLEANUP': <class 'gluon.validators.CLEANUP'>, ...}, layer='/home/vanshika/vanshu/c pro/itws/itws2/web2py/applications/NOUVELLES_EN_LIGNE/controllers/default.py')"
p3222
sS'func'
p3223
S'restricted'
p3224
sa(dp3225
g3200
S'/home/vanshika/vanshu/c pro/itws/itws2/web2py/applications/NOUVELLES_EN_LIGNE/controllers/default.py'
p3226
sg3202
(dp3227
S'cache'
p3228
S'<gluon.cache.Cache object>'
p3229
sS'cache.action'
p3230
S'undefined'
p3231
ssg3208
I41
sg3209
(dp3232
I36
S"        @auth.requires_permission('read','table name',record_id)"
p3233
sI37
S'    to decorate functions that need access control'
p3234
sI38
S'    """'
p3235
sI39
S'    return dict(form=auth())'
p3236
sI40
S''
sI41
S'@cache.action()'
p3237
sI42
S'def download():'
p3238
sI43
S'    """'
p3239
sI44
S'    allows downloading of uploaded files'
p3240
sI45
S'    http://..../[app]/default/download/[filename]'
p3241
ssg3221
S'()'
p3242
sg3223
S'<module>'
p3243
sasS'pyver'
p3244
S'Python 2.7.3: /usr/bin/python'
p3245
sS'session'
p3246
g57
(g58
g59
NtRp3247
(dp3248
g62
(dp3249
sg64
(lp3250
g57
(g66
g59
NtRp3251
(dp3252
g62
(dp3253
g70
I5
ssg71
Nsg64
(lp3254
sbasbsS'etype'
p3255
S"<type 'exceptions.AttributeError'>"
p3256
sS'date'
p3257
S'Mon Sep  2 22:22:50 2013'
p3258
sS'response'
p3259
g57
(g58
g59
NtRp3260
(dp3261
g62
(dp3262
sg64
(lp3263
g57
(g66
g59
NtRp3264
(dp3265
g62
(dp3266
g70
I5
ssg71
Nsg64
(lp3267
g57
(g73
g59
NtRp3268
(dp3269
g62
(dp3270
sg71
g3264
sg64
(lp3271
g57
(g78
g59
NtRp3272
(dp3273
g62
(dp3274
g82
g83
ssg71
g3268
sg64
(lp3275
g155
asbag57
(g78
g59
NtRp3276
(dp3277
g62
(dp3278
g89
g90
ssg71
g3268
sg64
(lp3279
S':'
asbag57
(g78
g59
NtRp3280
(dp3281
g62
(dp3282
sg71
g3268
sg64
(lp3283
g57
(g58
g59
NtRp3284
(dp3285
g62
(dp3286
g70
I5
ssg71
g3280
sg64
(lp3287
S'<cStringIO.StringO object at 0x994a220>'
p3288
asbasbasbag57
(g73
g59
NtRp3289
(dp3290
g62
(dp3291
sg71
g3264
sg64
(lp3292
g57
(g78
g59
NtRp3293
(dp3294
g62
(dp3295
g82
g83
ssg71
g3289
sg64
(lp3296
g243
asbag57
(g78
g59
NtRp3297
(dp3298
g62
(dp3299
g89
g90
ssg71
g3289
sg64
(lp3300
S':'
asbag57
(g78
g59
NtRp3301
(dp3302
g62
(dp3303
sg71
g3289
sg64
(lp3304
g57
(g58
g59
NtRp3305
(dp3306
g62
(dp3307
g70
I5
ssg71
g3301
sg64
(lp3308
g57
(g66
g59
NtRp3309
(dp3310
g62
(dp3311
g70
I4
ssg71
Nsg64
(lp3312
g57
(g73
g59
NtRp3313
(dp3314
g62
(dp3315
sg71
g3309
sg64
(lp3316
g57
(g78
g59
NtRp3317
(dp3318
g62
(dp3319
g82
g83
ssg71
g3313
sg64
(lp3320
S'session_id_nouvelles_en_ligne'
p3321
asbag57
(g78
g59
NtRp3322
(dp3323
g62
(dp3324
g89
g90
ssg71
g3313
sg64
(lp3325
S':'
asbag57
(g78
g59
NtRp3326
(dp3327
g62
(dp3328
sg71
g3313
sg64
(lp3329
g57
(g58
g59
NtRp3330
(dp3331
g62
(dp3332
g70
I4
ssg71
g3326
sg64
(lp3333
S'127.0.0.1-d84a8056-1129-4921-a355-3d7c7307955e'
p3334
ag57
(g66
g59
NtRp3335
(dp3336
g62
(dp3337
g70
I3
ssg71
Nsg64
(lp3338
g57
(g73
g59
NtRp3339
(dp3340
g62
(dp3341
sg71
g3335
sg64
(lp3342
g57
(g78
g59
NtRp3343
(dp3344
g62
(dp3345
g82
g83
ssg71
g3339
sg64
(lp3346
g294
asbag57
(g78
g59
NtRp3347
(dp3348
g62
(dp3349
g89
g90
ssg71
g3339
sg64
(lp3350
S':'
asbag57
(g78
g59
NtRp3351
(dp3352
g62
(dp3353
sg71
g3339
sg64
(lp3354
g57
(g58
g59
NtRp3355
(dp3356
g62
(dp3357
g70
I3
ssg71
g3351
sg64
(lp3358
S''
asbasbasbag57
(g73
g59
NtRp3359
(dp3360
g62
(dp3361
sg71
g3335
sg64
(lp3362
g57
(g78
g59
NtRp3363
(dp3364
g62
(dp3365
g82
g83
ssg71
g3359
sg64
(lp3366
g315
asbag57
(g78
g59
NtRp3367
(dp3368
g62
(dp3369
g89
g90
ssg71
g3359
sg64
(lp3370
S':'
asbag57
(g78
g59
NtRp3371
(dp3372
g62
(dp3373
sg71
g3359
sg64
(lp3374
g57
(g58
g59
NtRp3375
(dp3376
g62
(dp3377
g70
I3
ssg71
g3371
sg64
(lp3378
S''
asbasbasbag57
(g73
g59
NtRp3379
(dp3380
g62
(dp3381
sg71
g3335
sg64
(lp3382
g57
(g78
g59
NtRp3383
(dp3384
g62
(dp3385
g82
g83
ssg71
g3379
sg64
(lp3386
g336
asbag57
(g78
g59
NtRp3387
(dp3388
g62
(dp3389
g89
g90
ssg71
g3379
sg64
(lp3390
S':'
asbag57
(g78
g59
NtRp3391
(dp3392
g62
(dp3393
sg71
g3379
sg64
(lp3394
g57
(g58
g59
NtRp3395
(dp3396
g62
(dp3397
g70
I3
ssg71
g3391
sg64
(lp3398
S''
asbasbasbag57
(g73
g59
NtRp3399
(dp3400
g62
(dp3401
sg71
g3335
sg64
(lp3402
g57
(g78
g59
NtRp3403
(dp3404
g62
(dp3405
g82
g83
ssg71
g3399
sg64
(lp3406
g357
asbag57
(g78
g59
NtRp3407
(dp3408
g62
(dp3409
g89
g90
ssg71
g3399
sg64
(lp3410
S':'
asbag57
(g78
g59
NtRp3411
(dp3412
g62
(dp3413
sg71
g3399
sg64
(lp3414
g57
(g58
g59
NtRp3415
(dp3416
g62
(dp3417
g70
I3
ssg71
g3411
sg64
(lp3418
S''
asbasbasbag57
(g73
g59
NtRp3419
(dp3420
g62
(dp3421
sg71
g3335
sg64
(lp3422
g57
(g78
g59
NtRp3423
(dp3424
g62
(dp3425
g82
g83
ssg71
g3419
sg64
(lp3426
g378
asbag57
(g78
g59
NtRp3427
(dp3428
g62
(dp3429
g89
g90
ssg71
g3419
sg64
(lp3430
S':'
asbag57
(g78
g59
NtRp3431
(dp3432
g62
(dp3433
sg71
g3419
sg64
(lp3434
g57
(g58
g59
NtRp3435
(dp3436
g62
(dp3437
g70
I3
ssg71
g3431
sg64
(lp3438
S''
asbasbasbag57
(g73
g59
NtRp3439
(dp3440
g62
(dp3441
sg71
g3335
sg64
(lp3442
g57
(g78
g59
NtRp3443
(dp3444
g62
(dp3445
g82
g83
ssg71
g3439
sg64
(lp3446
g399
asbag57
(g78
g59
NtRp3447
(dp3448
g62
(dp3449
g89
g90
ssg71
g3439
sg64
(lp3450
S':'
asbag57
(g78
g59
NtRp3451
(dp3452
g62
(dp3453
sg71
g3439
sg64
(lp3454
g57
(g58
g59
NtRp3455
(dp3456
g62
(dp3457
g70
I3
ssg71
g3451
sg64
(lp3458
S'/'
asbasbasbag57
(g73
g59
NtRp3459
(dp3460
g62
(dp3461
sg71
g3335
sg64
(lp3462
g57
(g78
g59
NtRp3463
(dp3464
g62
(dp3465
g82
g83
ssg71
g3459
sg64
(lp3466
g420
asbag57
(g78
g59
NtRp3467
(dp3468
g62
(dp3469
g89
g90
ssg71
g3459
sg64
(lp3470
S':'
asbag57
(g78
g59
NtRp3471
(dp3472
g62
(dp3473
sg71
g3459
sg64
(lp3474
g57
(g58
g59
NtRp3475
(dp3476
g62
(dp3477
g70
I3
ssg71
g3471
sg64
(lp3478
S''
asbasbasbag57
(g73
g59
NtRp3479
(dp3480
g62
(dp3481
sg71
g3335
sg64
(lp3482
g57
(g78
g59
NtRp3483
(dp3484
g62
(dp3485
g82
g83
ssg71
g3479
sg64
(lp3486
g441
asbag57
(g78
g59
NtRp3487
(dp3488
g62
(dp3489
g89
g90
ssg71
g3479
sg64
(lp3490
S':'
asbag57
(g78
g59
NtRp3491
(dp3492
g62
(dp3493
sg71
g3479
sg64
(lp3494
g57
(g58
g59
NtRp3495
(dp3496
g62
(dp3497
g70
I3
ssg71
g3491
sg64
(lp3498
S''
asbasbasbasbasbasbasbasbasbasbasbag57
(g73
g59
NtRp3499
(dp3500
g62
(dp3501
sg71
g3264
sg64
(lp3502
g57
(g78
g59
NtRp3503
(dp3504
g62
(dp3505
g82
g83
ssg71
g3499
sg64
(lp3506
S'delimiters'
p3507
asbag57
(g78
g59
NtRp3508
(dp3509
g62
(dp3510
g89
g90
ssg71
g3499
sg64
(lp3511
S':'
asbag57
(g78
g59
NtRp3512
(dp3513
g62
(dp3514
sg71
g3499
sg64
(lp3515
g57
(g58
g59
NtRp3516
(dp3517
g62
(dp3518
g70
I5
ssg71
g3512
sg64
(lp3519
g57
(g66
g59
NtRp3520
(dp3521
g62
(dp3522
g70
I4
ssg71
Nsg64
(lp3523
g57
(g73
g59
NtRp3524
(dp3525
g62
(dp3526
sg71
g3520
sg64
(lp3527
g57
(g78
g59
NtRp3528
(dp3529
g62
(dp3530
sg71
g3524
sg64
(lp3531
g57
(g58
g59
NtRp3532
(dp3533
g62
(dp3534
g70
I4
ssg71
g3528
sg64
(lp3535
S'{{'
p3536
asbasbasbag57
(g73
g59
NtRp3537
(dp3538
g62
(dp3539
sg71
g3520
sg64
(lp3540
g57
(g78
g59
NtRp3541
(dp3542
g62
(dp3543
sg71
g3537
sg64
(lp3544
g57
(g58
g59
NtRp3545
(dp3546
g62
(dp3547
g70
I4
ssg71
g3541
sg64
(lp3548
S'}}'
p3549
asbasbasbasbasbasbasbag57
(g73
g59
NtRp3550
(dp3551
g62
(dp3552
sg71
g3264
sg64
(lp3553
g57
(g78
g59
NtRp3554
(dp3555
g62
(dp3556
g82
g83
ssg71
g3550
sg64
(lp3557
S'files'
p3558
asbag57
(g78
g59
NtRp3559
(dp3560
g62
(dp3561
g89
g90
ssg71
g3550
sg64
(lp3562
S':'
asbag57
(g78
g59
NtRp3563
(dp3564
g62
(dp3565
sg71
g3550
sg64
(lp3566
g57
(g58
g59
NtRp3567
(dp3568
g62
(dp3569
g70
I5
ssg71
g3563
sg64
(lp3570
g57
(g66
g59
NtRp3571
(dp3572
g62
(dp3573
g70
I4
ssg71
Nsg64
(lp3574
sbasbasbasbag57
(g73
g59
NtRp3575
(dp3576
g62
(dp3577
sg71
g3264
sg64
(lp3578
g57
(g78
g59
NtRp3579
(dp3580
g62
(dp3581
g82
g83
ssg71
g3575
sg64
(lp3582
S'flash'
p3583
asbag57
(g78
g59
NtRp3584
(dp3585
g62
(dp3586
g89
g90
ssg71
g3575
sg64
(lp3587
S':'
asbag57
(g78
g59
NtRp3588
(dp3589
g62
(dp3590
sg71
g3575
sg64
(lp3591
g57
(g58
g59
NtRp3592
(dp3593
g62
(dp3594
g70
I5
ssg71
g3588
sg64
(lp3595
S''
asbasbasbag57
(g73
g59
NtRp3596
(dp3597
g62
(dp3598
sg71
g3264
sg64
(lp3599
g57
(g78
g59
NtRp3600
(dp3601
g62
(dp3602
g82
g83
ssg71
g3596
sg64
(lp3603
S'generic_patterns'
p3604
asbag57
(g78
g59
NtRp3605
(dp3606
g62
(dp3607
g89
g90
ssg71
g3596
sg64
(lp3608
S':'
asbag57
(g78
g59
NtRp3609
(dp3610
g62
(dp3611
sg71
g3596
sg64
(lp3612
g57
(g58
g59
NtRp3613
(dp3614
g62
(dp3615
g70
I5
ssg71
g3609
sg64
(lp3616
g57
(g66
g59
NtRp3617
(dp3618
g62
(dp3619
g70
I4
ssg71
Nsg64
(lp3620
g57
(g73
g59
NtRp3621
(dp3622
g62
(dp3623
sg71
g3617
sg64
(lp3624
g57
(g78
g59
NtRp3625
(dp3626
g62
(dp3627
sg71
g3621
sg64
(lp3628
g57
(g58
g59
NtRp3629
(dp3630
g62
(dp3631
g70
I4
ssg71
g3625
sg64
(lp3632
S'*'
asbasbasbasbasbasbasbag57
(g73
g59
NtRp3633
(dp3634
g62
(dp3635
sg71
g3264
sg64
(lp3636
g57
(g78
g59
NtRp3637
(dp3638
g62
(dp3639
g82
g83
ssg71
g3633
sg64
(lp3640
S'google_analytics_id'
p3641
asbag57
(g78
g59
NtRp3642
(dp3643
g62
(dp3644
g89
g90
ssg71
g3633
sg64
(lp3645
S':'
asbag57
(g78
g59
NtRp3646
(dp3647
g62
(dp3648
sg71
g3633
sg64
(lp3649
g57
(g58
g59
NtRp3650
(dp3651
g62
(dp3652
g70
I5
ssg71
g3646
sg64
(lp3653
S'None'
p3654
asbasbasbag57
(g73
g59
NtRp3655
(dp3656
g62
(dp3657
sg71
g3264
sg64
(lp3658
g57
(g78
g59
NtRp3659
(dp3660
g62
(dp3661
g82
g83
ssg71
g3655
sg64
(lp3662
S'headers'
p3663
asbag57
(g78
g59
NtRp3664
(dp3665
g62
(dp3666
g89
g90
ssg71
g3655
sg64
(lp3667
S':'
asbag57
(g78
g59
NtRp3668
(dp3669
g62
(dp3670
sg71
g3655
sg64
(lp3671
g57
(g58
g59
NtRp3672
(dp3673
g62
(dp3674
g70
I5
ssg71
g3668
sg64
(lp3675
g57
(g66
g59
NtRp3676
(dp3677
g62
(dp3678
g70
I4
ssg71
Nsg64
(lp3679
g57
(g73
g59
NtRp3680
(dp3681
g62
(dp3682
sg71
g3676
sg64
(lp3683
g57
(g78
g59
NtRp3684
(dp3685
g62
(dp3686
g82
g83
ssg71
g3680
sg64
(lp3687
S'X-Powered-By'
p3688
asbag57
(g78
g59
NtRp3689
(dp3690
g62
(dp3691
g89
g90
ssg71
g3680
sg64
(lp3692
S':'
asbag57
(g78
g59
NtRp3693
(dp3694
g62
(dp3695
sg71
g3680
sg64
(lp3696
g57
(g58
g59
NtRp3697
(dp3698
g62
(dp3699
g70
I4
ssg71
g3693
sg64
(lp3700
S'web2py'
p3701
asbasbasbasbasbasbasbag57
(g73
g59
NtRp3702
(dp3703
g62
(dp3704
sg71
g3264
sg64
(lp3705
g57
(g78
g59
NtRp3706
(dp3707
g62
(dp3708
g82
g83
ssg71
g3702
sg64
(lp3709
S'logo'
p3710
asbag57
(g78
g59
NtRp3711
(dp3712
g62
(dp3713
g89
g90
ssg71
g3702
sg64
(lp3714
S':'
asbag57
(g78
g59
NtRp3715
(dp3716
g62
(dp3717
sg71
g3702
sg64
(lp3718
g57
(g58
g59
NtRp3719
(dp3720
g62
(dp3721
g70
I5
ssg71
g3715
sg64
(lp3722
g57
(cgluon.html
A
p3723
g59
NtRp3724
(dp3725
g62
(dp3726
S'_class'
p3727
S'brand'
p3728
sS'_href'
p3729
S'http://www.web2py.com/'
p3730
ssg71
Nsg64
(lp3731
g57
(cgluon.html
B
p3732
g59
NtRp3733
(dp3734
g62
(dp3735
sg71
g3724
sg64
(lp3736
S'web'
p3737
ag57
(cgluon.html
SPAN
p3738
g59
NtRp3739
(dp3740
g62
(dp3741
sg71
g3733
sg64
(lp3742
I2
asbaS'py'
p3743
asbacgluon.html
XML_unpickle
p3744
(S's\r\x00\x00\x00&trade;&nbsp;'
tRp3745
asbasbasbasbag57
(g73
g59
NtRp3746
(dp3747
g62
(dp3748
sg71
g3264
sg64
(lp3749
g57
(g78
g59
NtRp3750
(dp3751
g62
(dp3752
g82
g83
ssg71
g3746
sg64
(lp3753
S'menu'
p3754
asbag57
(g78
g59
NtRp3755
(dp3756
g62
(dp3757
g89
g90
ssg71
g3746
sg64
(lp3758
S':'
asbag57
(g78
g59
NtRp3759
(dp3760
g62
(dp3761
sg71
g3746
sg64
(lp3762
g57
(g58
g59
NtRp3763
(dp3764
g62
(dp3765
g70
I5
ssg71
g3759
sg64
(lp3766
g57
(g66
g59
NtRp3767
(dp3768
g62
(dp3769
g70
I4
ssg71
Nsg64
(lp3770
g57
(g73
g59
NtRp3771
(dp3772
g62
(dp3773
sg71
g3767
sg64
(lp3774
g57
(g78
g59
NtRp3775
(dp3776
g62
(dp3777
sg71
g3771
sg64
(lp3778
g57
(g58
g59
NtRp3779
(dp3780
g62
(dp3781
g70
I4
ssg71
g3775
sg64
(lp3782
g57
(g66
g59
NtRp3783
(dp3784
g62
(dp3785
g70
I3
ssg71
Nsg64
(lp3786
g57
(g73
g59
NtRp3787
(dp3788
g62
(dp3789
sg71
g3783
sg64
(lp3790
g57
(g78
g59
NtRp3791
(dp3792
g62
(dp3793
sg71
g3787
sg64
(lp3794
g57
(g58
g59
NtRp3795
(dp3796
g62
(dp3797
g70
I3
ssg71
g3791
sg64
(lp3798
cgluon.languages
lazyT_unpickle
p3799
(S's\x04\x00\x00\x00Home'
tRp3800
asbasbasbag57
(g73
g59
NtRp3801
(dp3802
g62
(dp3803
sg71
g3783
sg64
(lp3804
g57
(g78
g59
NtRp3805
(dp3806
g62
(dp3807
sg71
g3801
sg64
(lp3808
g57
(g58
g59
NtRp3809
(dp3810
g62
(dp3811
g70
I3
ssg71
g3805
sg64
(lp3812
g100
asbasbasbag57
(g73
g59
NtRp3813
(dp3814
g62
(dp3815
sg71
g3783
sg64
(lp3816
g57
(g78
g59
NtRp3817
(dp3818
g62
(dp3819
sg71
g3813
sg64
(lp3820
g57
(g58
g59
NtRp3821
(dp3822
g62
(dp3823
g70
I3
ssg71
g3817
sg64
(lp3824
S'/NOUVELLES_EN_LIGNE/default/index'
p3825
asbasbasbag57
(g73
g59
NtRp3826
(dp3827
g62
(dp3828
sg71
g3783
sg64
(lp3829
g57
(g78
g59
NtRp3830
(dp3831
g62
(dp3832
sg71
g3826
sg64
(lp3833
g57
(g58
g59
NtRp3834
(dp3835
g62
(dp3836
g70
I3
ssg71
g3830
sg64
(lp3837
g57
(g66
g59
NtRp3838
(dp3839
g62
(dp3840
g70
I2
ssg71
Nsg64
(lp3841
sbasbasbasbasbasbasbasbag57
(g73
g59
NtRp3842
(dp3843
g62
(dp3844
sg71
g3767
sg64
(lp3845
g57
(g78
g59
NtRp3846
(dp3847
g62
(dp3848
sg71
g3842
sg64
(lp3849
g57
(g58
g59
NtRp3850
(dp3851
g62
(dp3852
g70
I4
ssg71
g3846
sg64
(lp3853
g57
(g66
g59
NtRp3854
(dp3855
g62
(dp3856
g70
I3
ssg71
Nsg64
(lp3857
g57
(g73
g59
NtRp3858
(dp3859
g62
(dp3860
sg71
g3854
sg64
(lp3861
g57
(g78
g59
NtRp3862
(dp3863
g62
(dp3864
sg71
g3858
sg64
(lp3865
g57
(g58
g59
NtRp3866
(dp3867
g62
(dp3868
g70
I3
ssg71
g3862
sg64
(lp3869
g57
(g3738
g59
NtRp3870
(dp3871
g62
(dp3872
g3727
S'highlighted'
p3873
ssg71
Nsg64
(lp3874
g3701
asbasbasbasbag57
(g73
g59
NtRp3875
(dp3876
g62
(dp3877
sg71
g3854
sg64
(lp3878
g57
(g78
g59
NtRp3879
(dp3880
g62
(dp3881
sg71
g3875
sg64
(lp3882
g57
(g58
g59
NtRp3883
(dp3884
g62
(dp3885
g70
I3
ssg71
g3879
sg64
(lp3886
g100
asbasbasbag57
(g73
g59
NtRp3887
(dp3888
g62
(dp3889
sg71
g3854
sg64
(lp3890
g57
(g78
g59
NtRp3891
(dp3892
g62
(dp3893
sg71
g3887
sg64
(lp3894
g57
(g58
g59
NtRp3895
(dp3896
g62
(dp3897
g70
I3
ssg71
g3891
sg64
(lp3898
S'http://web2py.com'
p3899
asbasbasbag57
(g73
g59
NtRp3900
(dp3901
g62
(dp3902
sg71
g3854
sg64
(lp3903
g57
(g78
g59
NtRp3904
(dp3905
g62
(dp3906
sg71
g3900
sg64
(lp3907
g57
(g58
g59
NtRp3908
(dp3909
g62
(dp3910
g70
I3
ssg71
g3904
sg64
(lp3911
g57
(g66
g59
NtRp3912
(dp3913
g62
(dp3914
g70
I2
ssg71
Nsg64
(lp3915
g57
(g73
g59
NtRp3916
(dp3917
g62
(dp3918
sg71
g3912
sg64
(lp3919
g57
(g78
g59
NtRp3920
(dp3921
g62
(dp3922
sg71
g3916
sg64
(lp3923
g57
(g58
g59
NtRp3924
(dp3925
g62
(dp3926
g70
I2
ssg71
g3920
sg64
(lp3927
g57
(g66
g59
NtRp3928
(dp3929
g62
(dp3930
g70
I1
ssg71
Nsg64
(lp3931
g57
(g73
g59
NtRp3932
(dp3933
g62
(dp3934
sg71
g3928
sg64
(lp3935
g57
(g78
g59
NtRp3936
(dp3937
g62
(dp3938
sg71
g3932
sg64
(lp3939
g57
(g58
g59
NtRp3940
(dp3941
g62
(dp3942
g70
I1
ssg71
g3936
sg64
(lp3943
g3799
(S's\x08\x00\x00\x00My Sites'
tRp3944
asbasbasbag57
(g73
g59
NtRp3945
(dp3946
g62
(dp3947
sg71
g3928
sg64
(lp3948
g57
(g78
g59
NtRp3949
(dp3950
g62
(dp3951
sg71
g3945
sg64
(lp3952
g57
(g58
g59
NtRp3953
(dp3954
g62
(dp3955
g70
I1
ssg71
g3949
sg64
(lp3956
I00
asbasbasbag57
(g73
g59
NtRp3957
(dp3958
g62
(dp3959
sg71
g3928
sg64
(lp3960
g57
(g78
g59
NtRp3961
(dp3962
g62
(dp3963
sg71
g3957
sg64
(lp3964
g57
(g58
g59
NtRp3965
(dp3966
g62
(dp3967
g70
I1
ssg71
g3961
sg64
(lp3968
S'/admin/default/site'
p3969
asbasbasbasbasbasbasbag57
(g73
g59
NtRp3970
(dp3971
g62
(dp3972
sg71
g3912
sg64
(lp3973
g57
(g78
g59
NtRp3974
(dp3975
g62
(dp3976
sg71
g3970
sg64
(lp3977
g57
(g58
g59
NtRp3978
(dp3979
g62
(dp3980
g70
I2
ssg71
g3974
sg64
(lp3981
g57
(g66
g59
NtRp3982
(dp3983
g62
(dp3984
g70
I1
ssg71
Nsg64
(lp3985
g57
(g73
g59
NtRp3986
(dp3987
g62
(dp3988
sg71
g3982
sg64
(lp3989
g57
(g78
g59
NtRp3990
(dp3991
g62
(dp3992
sg71
g3986
sg64
(lp3993
g57
(g58
g59
NtRp3994
(dp3995
g62
(dp3996
g70
I1
ssg71
g3990
sg64
(lp3997
g3799
(S's\x08\x00\x00\x00This App'
tRp3998
asbasbasbag57
(g73
g59
NtRp3999
(dp4000
g62
(dp4001
sg71
g3982
sg64
(lp4002
g57
(g78
g59
NtRp4003
(dp4004
g62
(dp4005
sg71
g3999
sg64
(lp4006
g57
(g58
g59
NtRp4007
(dp4008
g62
(dp4009
g70
I1
ssg71
g4003
sg64
(lp4010
I00
asbasbasbag57
(g73
g59
NtRp4011
(dp4012
g62
(dp4013
sg71
g3982
sg64
(lp4014
g57
(g78
g59
NtRp4015
(dp4016
g62
(dp4017
sg71
g4011
sg64
(lp4018
g57
(g58
g59
NtRp4019
(dp4020
g62
(dp4021
g70
I1
ssg71
g4015
sg64
(lp4022
S'/admin/default/design/NOUVELLES_EN_LIGNE'
p4023
asbasbasbag57
(g73
g59
NtRp4024
(dp4025
g62
(dp4026
sg71
g3982
sg64
(lp4027
g57
(g78
g59
NtRp4028
(dp4029
g62
(dp4030
sg71
g4024
sg64
(lp4031
g57
(g58
g59
NtRp4032
(dp4033
g62
(dp4034
g70
I1
ssg71
g4028
sg64
(lp4035
(lp4036
(g3799
(S's\n\x00\x00\x00Controller'
tRp4037
I00
S'/admin/default/edit/NOUVELLES_EN_LIGNE/controllers/default.py'
tp4038
a(g3799
(S's\x04\x00\x00\x00View'
tRp4039
I00
S'/admin/default/edit/NOUVELLES_EN_LIGNE/views/default/index.html'
tp4040
a(g3799
(S's\x06\x00\x00\x00Layout'
tRp4041
I00
S'/admin/default/edit/NOUVELLES_EN_LIGNE/views/layout.html'
tp4042
a(g3799
(S's\n\x00\x00\x00Stylesheet'
tRp4043
I00
S'/admin/default/edit/NOUVELLES_EN_LIGNE/static/css/web2py.css'
tp4044
a(g3799
(S's\x08\x00\x00\x00DB Model'
tRp4045
I00
S'/admin/default/edit/NOUVELLES_EN_LIGNE/models/db.py'
tp4046
a(g3799
(S's\n\x00\x00\x00Menu Model'
tRp4047
I00
S'/admin/default/edit/NOUVELLES_EN_LIGNE/models/menu.py'
tp4048
a(g3799
(S's\x08\x00\x00\x00Database'
tRp4049
I00
S'/NOUVELLES_EN_LIGNE/appadmin/index'
tp4050
a(g3799
(S's\x06\x00\x00\x00Errors'
tRp4051
I00
S'/admin/default/errors/NOUVELLES_EN_LIGNE'
tp4052
a(g3799
(S's\x05\x00\x00\x00About'
tRp4053
I00
S'/admin/default/about/NOUVELLES_EN_LIGNE'
tp4054
aasbasbasbasbasbasbasbag57
(g73
g59
NtRp4055
(dp4056
g62
(dp4057
sg71
g3912
sg64
(lp4058
g57
(g78
g59
NtRp4059
(dp4060
g62
(dp4061
sg71
g4055
sg64
(lp4062
g57
(g58
g59
NtRp4063
(dp4064
g62
(dp4065
g70
I2
ssg71
g4059
sg64
(lp4066
g57
(g66
g59
NtRp4067
(dp4068
g62
(dp4069
g70
I1
ssg71
Nsg64
(lp4070
g57
(g73
g59
NtRp4071
(dp4072
g62
(dp4073
sg71
g4067
sg64
(lp4074
g57
(g78
g59
NtRp4075
(dp4076
g62
(dp4077
sg71
g4071
sg64
(lp4078
g57
(g58
g59
NtRp4079
(dp4080
g62
(dp4081
g70
I1
ssg71
g4075
sg64
(lp4082
S'web2py.com'
p4083
asbasbasbag57
(g73
g59
NtRp4084
(dp4085
g62
(dp4086
sg71
g4067
sg64
(lp4087
g57
(g78
g59
NtRp4088
(dp4089
g62
(dp4090
sg71
g4084
sg64
(lp4091
g57
(g58
g59
NtRp4092
(dp4093
g62
(dp4094
g70
I1
ssg71
g4088
sg64
(lp4095
I00
asbasbasbag57
(g73
g59
NtRp4096
(dp4097
g62
(dp4098
sg71
g4067
sg64
(lp4099
g57
(g78
g59
NtRp4100
(dp4101
g62
(dp4102
sg71
g4096
sg64
(lp4103
g57
(g58
g59
NtRp4104
(dp4105
g62
(dp4106
g70
I1
ssg71
g4100
sg64
(lp4107
S'http://www.web2py.com'
p4108
asbasbasbag57
(g73
g59
NtRp4109
(dp4110
g62
(dp4111
sg71
g4067
sg64
(lp4112
g57
(g78
g59
NtRp4113
(dp4114
g62
(dp4115
sg71
g4109
sg64
(lp4116
g57
(g58
g59
NtRp4117
(dp4118
g62
(dp4119
g70
I1
ssg71
g4113
sg64
(lp4120
(lp4121
(g3799
(S's\x08\x00\x00\x00Download'
tRp4122
I00
S'http://www.web2py.com/examples/default/download'
p4123
tp4124
a(g3799
(S's\x07\x00\x00\x00Support'
tRp4125
I00
S'http://www.web2py.com/examples/default/support'
p4126
tp4127
a(g3799
(S's\x04\x00\x00\x00Demo'
tRp4128
I00
S'http://web2py.com/demo_admin'
p4129
tp4130
a(g3799
(S's\x0e\x00\x00\x00Quick Examples'
tRp4131
I00
S'http://web2py.com/examples/default/examples'
p4132
tp4133
a(g3799
(S's\x03\x00\x00\x00FAQ'
tRp4134
I00
S'http://web2py.com/AlterEgo'
p4135
tp4136
a(g3799
(S's\x06\x00\x00\x00Videos'
tRp4137
I00
S'http://www.web2py.com/examples/default/videos/'
p4138
tp4139
a(g3799
(S's\x11\x00\x00\x00Free Applications'
tRp4140
I00
S'http://web2py.com/appliances'
p4141
tp4142
a(g3799
(S's\x07\x00\x00\x00Plugins'
tRp4143
I00
S'http://web2py.com/plugins'
p4144
tp4145
a(g3799
(S's\x07\x00\x00\x00Layouts'
tRp4146
I00
S'http://web2py.com/layouts'
p4147
tp4148
a(g3799
(S's\x07\x00\x00\x00Recipes'
tRp4149
I00
S'http://web2pyslices.com/'
p4150
tp4151
a(g3799
(S's\x08\x00\x00\x00Semantic'
tRp4152
I00
S'http://web2py.com/semantic'
p4153
tp4154
aasbasbasbasbasbasbasbag57
(g73
g59
NtRp4155
(dp4156
g62
(dp4157
sg71
g3912
sg64
(lp4158
g57
(g78
g59
NtRp4159
(dp4160
g62
(dp4161
sg71
g4155
sg64
(lp4162
g57
(g58
g59
NtRp4163
(dp4164
g62
(dp4165
g70
I2
ssg71
g4159
sg64
(lp4166
g57
(g66
g59
NtRp4167
(dp4168
g62
(dp4169
g70
I1
ssg71
Nsg64
(lp4170
g57
(g73
g59
NtRp4171
(dp4172
g62
(dp4173
sg71
g4167
sg64
(lp4174
g57
(g78
g59
NtRp4175
(dp4176
g62
(dp4177
sg71
g4171
sg64
(lp4178
g57
(g58
g59
NtRp4179
(dp4180
g62
(dp4181
g70
I1
ssg71
g4175
sg64
(lp4182
g3799
(S's\r\x00\x00\x00Documentation'
tRp4183
asbasbasbag57
(g73
g59
NtRp4184
(dp4185
g62
(dp4186
sg71
g4167
sg64
(lp4187
g57
(g78
g59
NtRp4188
(dp4189
g62
(dp4190
sg71
g4184
sg64
(lp4191
g57
(g58
g59
NtRp4192
(dp4193
g62
(dp4194
g70
I1
ssg71
g4188
sg64
(lp4195
I00
asbasbasbag57
(g73
g59
NtRp4196
(dp4197
g62
(dp4198
sg71
g4167
sg64
(lp4199
g57
(g78
g59
NtRp4200
(dp4201
g62
(dp4202
sg71
g4196
sg64
(lp4203
g57
(g58
g59
NtRp4204
(dp4205
g62
(dp4206
g70
I1
ssg71
g4200
sg64
(lp4207
S'http://www.web2py.com/book'
p4208
asbasbasbag57
(g73
g59
NtRp4209
(dp4210
g62
(dp4211
sg71
g4167
sg64
(lp4212
g57
(g78
g59
NtRp4213
(dp4214
g62
(dp4215
sg71
g4209
sg64
(lp4216
g57
(g58
g59
NtRp4217
(dp4218
g62
(dp4219
g70
I1
ssg71
g4213
sg64
(lp4220
(lp4221
(g3799
(S's\x07\x00\x00\x00Preface'
tRp4222
I00
S'http://www.web2py.com/book/default/chapter/00'
p4223
tp4224
a(g3799
(S's\x0c\x00\x00\x00Introduction'
tRp4225
I00
S'http://www.web2py.com/book/default/chapter/01'
p4226
tp4227
a(g3799
(S's\x06\x00\x00\x00Python'
tRp4228
I00
S'http://www.web2py.com/book/default/chapter/02'
p4229
tp4230
a(g3799
(S's\x08\x00\x00\x00Overview'
tRp4231
I00
S'http://www.web2py.com/book/default/chapter/03'
p4232
tp4233
a(g3799
(S's\x08\x00\x00\x00The Core'
tRp4234
I00
S'http://www.web2py.com/book/default/chapter/04'
p4235
tp4236
a(g3799
(S's\t\x00\x00\x00The Views'
tRp4237
I00
S'http://www.web2py.com/book/default/chapter/05'
p4238
tp4239
a(g3799
(S's\x08\x00\x00\x00Database'
tRp4240
I00
S'http://www.web2py.com/book/default/chapter/06'
p4241
tp4242
a(g3799
(S's\x14\x00\x00\x00Forms and Validators'
tRp4243
I00
S'http://www.web2py.com/book/default/chapter/07'
p4244
tp4245
a(g3799
(S's\r\x00\x00\x00Email and SMS'
tRp4246
I00
S'http://www.web2py.com/book/default/chapter/08'
p4247
tp4248
a(g3799
(S's\x0e\x00\x00\x00Access Control'
tRp4249
I00
S'http://www.web2py.com/book/default/chapter/09'
p4250
tp4251
a(g3799
(S's\x08\x00\x00\x00Services'
tRp4252
I00
S'http://www.web2py.com/book/default/chapter/10'
p4253
tp4254
a(g3799
(S's\x0c\x00\x00\x00Ajax Recipes'
tRp4255
I00
S'http://www.web2py.com/book/default/chapter/11'
p4256
tp4257
a(g3799
(S's\x16\x00\x00\x00Components and Plugins'
tRp4258
I00
S'http://www.web2py.com/book/default/chapter/12'
p4259
tp4260
a(g3799
(S's\x12\x00\x00\x00Deployment Recipes'
tRp4261
I00
S'http://www.web2py.com/book/default/chapter/13'
p4262
tp4263
a(g3799
(S's\r\x00\x00\x00Other Recipes'
tRp4264
I00
S'http://www.web2py.com/book/default/chapter/14'
p4265
tp4266
a(g3799
(S's\r\x00\x00\x00Buy this book'
tRp4267
I00
S'http://stores.lulu.com/web2py'
p4268
tp4269
aasbasbasbasbasbasbasbag57
(g73
g59
NtRp4270
(dp4271
g62
(dp4272
sg71
g3912
sg64
(lp4273
g57
(g78
g59
NtRp4274
(dp4275
g62
(dp4276
sg71
g4270
sg64
(lp4277
g57
(g58
g59
NtRp4278
(dp4279
g62
(dp4280
g70
I2
ssg71
g4274
sg64
(lp4281
g57
(g66
g59
NtRp4282
(dp4283
g62
(dp4284
g70
I1
ssg71
Nsg64
(lp4285
g57
(g73
g59
NtRp4286
(dp4287
g62
(dp4288
sg71
g4282
sg64
(lp4289
g57
(g78
g59
NtRp4290
(dp4291
g62
(dp4292
sg71
g4286
sg64
(lp4293
g57
(g58
g59
NtRp4294
(dp4295
g62
(dp4296
g70
I1
ssg71
g4290
sg64
(lp4297
g3799
(S's\t\x00\x00\x00Community'
tRp4298
asbasbasbag57
(g73
g59
NtRp4299
(dp4300
g62
(dp4301
sg71
g4282
sg64
(lp4302
g57
(g78
g59
NtRp4303
(dp4304
g62
(dp4305
sg71
g4299
sg64
(lp4306
g57
(g58
g59
NtRp4307
(dp4308
g62
(dp4309
g70
I1
ssg71
g4303
sg64
(lp4310
I00
asbasbasbag57
(g73
g59
NtRp4311
(dp4312
g62
(dp4313
sg71
g4282
sg64
(lp4314
g57
(g78
g59
NtRp4315
(dp4316
g62
(dp4317
sg71
g4311
sg64
(lp4318
g57
(g58
g59
NtRp4319
(dp4320
g62
(dp4321
g70
I1
ssg71
g4315
sg64
(lp4322
Nasbasbasbag57
(g73
g59
NtRp4323
(dp4324
g62
(dp4325
sg71
g4282
sg64
(lp4326
g57
(g78
g59
NtRp4327
(dp4328
g62
(dp4329
sg71
g4323
sg64
(lp4330
g57
(g58
g59
NtRp4331
(dp4332
g62
(dp4333
g70
I1
ssg71
g4327
sg64
(lp4334
(lp4335
(g3799
(S's\x06\x00\x00\x00Groups'
tRp4336
I00
S'http://www.web2py.com/examples/default/usergroups'
p4337
tp4338
a(g3799
(S's\x07\x00\x00\x00Twitter'
tRp4339
I00
S'http://twitter.com/web2py'
p4340
tp4341
a(g3799
(S's\t\x00\x00\x00Live Chat'
tRp4342
I00
S'http://webchat.freenode.net/?channels=web2py'
p4343
tp4344
aasbasbasbasbasbasbasbag57
(g73
g59
NtRp4345
(dp4346
g62
(dp4347
sg71
g3912
sg64
(lp4348
g57
(g78
g59
NtRp4349
(dp4350
g62
(dp4351
sg71
g4345
sg64
(lp4352
g57
(g58
g59
NtRp4353
(dp4354
g62
(dp4355
g70
I2
ssg71
g4349
sg64
(lp4356
g57
(g66
g59
NtRp4357
(dp4358
g62
(dp4359
g70
I1
ssg71
Nsg64
(lp4360
g57
(g73
g59
NtRp4361
(dp4362
g62
(dp4363
sg71
g4357
sg64
(lp4364
g57
(g78
g59
NtRp4365
(dp4366
g62
(dp4367
sg71
g4361
sg64
(lp4368
g57
(g58
g59
NtRp4369
(dp4370
g62
(dp4371
g70
I1
ssg71
g4365
sg64
(lp4372
g3799
(S's\x07\x00\x00\x00Plugins'
tRp4373
asbasbasbag57
(g73
g59
NtRp4374
(dp4375
g62
(dp4376
sg71
g4357
sg64
(lp4377
g57
(g78
g59
NtRp4378
(dp4379
g62
(dp4380
sg71
g4374
sg64
(lp4381
g57
(g58
g59
NtRp4382
(dp4383
g62
(dp4384
g70
I1
ssg71
g4378
sg64
(lp4385
I00
asbasbasbag57
(g73
g59
NtRp4386
(dp4387
g62
(dp4388
sg71
g4357
sg64
(lp4389
g57
(g78
g59
NtRp4390
(dp4391
g62
(dp4392
sg71
g4386
sg64
(lp4393
g57
(g58
g59
NtRp4394
(dp4395
g62
(dp4396
g70
I1
ssg71
g4390
sg64
(lp4397
Nasbasbasbag57
(g73
g59
NtRp4398
(dp4399
g62
(dp4400
sg71
g4357
sg64
(lp4401
g57
(g78
g59
NtRp4402
(dp4403
g62
(dp4404
sg71
g4398
sg64
(lp4405
g57
(g58
g59
NtRp4406
(dp4407
g62
(dp4408
g70
I1
ssg71
g4402
sg64
(lp4409
(lp4410
(S'plugin_wiki'
p4411
I00
S'http://web2py.com/examples/default/download'
p4412
tp4413
a(g3799
(S's\r\x00\x00\x00Other Plugins'
tRp4414
I00
g4144
tp4415
a(g3799
(S's\x0e\x00\x00\x00Layout Plugins'
tRp4416
I00
g4147
tp4417
aasbasbasbasbasbasbasbasbasbasbasbasbasbasbasbasbasbasbasbag57
(g73
g59
NtRp4418
(dp4419
g62
(dp4420
sg71
g3264
sg64
(lp4421
g57
(g78
g59
NtRp4422
(dp4423
g62
(dp4424
g82
g83
ssg71
g4418
sg64
(lp4425
S'meta'
p4426
asbag57
(g78
g59
NtRp4427
(dp4428
g62
(dp4429
g89
g90
ssg71
g4418
sg64
(lp4430
S':'
asbag57
(g78
g59
NtRp4431
(dp4432
g62
(dp4433
sg71
g4418
sg64
(lp4434
g57
(g58
g59
NtRp4435
(dp4436
g62
(dp4437
g70
I5
ssg71
g4431
sg64
(lp4438
g57
(g66
g59
NtRp4439
(dp4440
g62
(dp4441
g70
I4
ssg71
Nsg64
(lp4442
g57
(g73
g59
NtRp4443
(dp4444
g62
(dp4445
sg71
g4439
sg64
(lp4446
g57
(g78
g59
NtRp4447
(dp4448
g62
(dp4449
g82
g83
ssg71
g4443
sg64
(lp4450
S'author'
p4451
asbag57
(g78
g59
NtRp4452
(dp4453
g62
(dp4454
g89
g90
ssg71
g4443
sg64
(lp4455
S':'
asbag57
(g78
g59
NtRp4456
(dp4457
g62
(dp4458
sg71
g4443
sg64
(lp4459
g57
(g58
g59
NtRp4460
(dp4461
g62
(dp4462
g70
I4
ssg71
g4456
sg64
(lp4463
S'Your Name <you@example.com>'
p4464
asbasbasbag57
(g73
g59
NtRp4465
(dp4466
g62
(dp4467
sg71
g4439
sg64
(lp4468
g57
(g78
g59
NtRp4469
(dp4470
g62
(dp4471
g82
g83
ssg71
g4465
sg64
(lp4472
S'description'
p4473
asbag57
(g78
g59
NtRp4474
(dp4475
g62
(dp4476
g89
g90
ssg71
g4465
sg64
(lp4477
S':'
asbag57
(g78
g59
NtRp4478
(dp4479
g62
(dp4480
sg71
g4465
sg64
(lp4481
g57
(g58
g59
NtRp4482
(dp4483
g62
(dp4484
g70
I4
ssg71
g4478
sg64
(lp4485
S'a cool new app'
p4486
asbasbasbag57
(g73
g59
NtRp4487
(dp4488
g62
(dp4489
sg71
g4439
sg64
(lp4490
g57
(g78
g59
NtRp4491
(dp4492
g62
(dp4493
g82
g83
ssg71
g4487
sg64
(lp4494
S'generator'
p4495
asbag57
(g78
g59
NtRp4496
(dp4497
g62
(dp4498
g89
g90
ssg71
g4487
sg64
(lp4499
S':'
asbag57
(g78
g59
NtRp4500
(dp4501
g62
(dp4502
sg71
g4487
sg64
(lp4503
g57
(g58
g59
NtRp4504
(dp4505
g62
(dp4506
g70
I4
ssg71
g4500
sg64
(lp4507
S'Web2py Web Framework'
p4508
asbasbasbag57
(g73
g59
NtRp4509
(dp4510
g62
(dp4511
sg71
g4439
sg64
(lp4512
g57
(g78
g59
NtRp4513
(dp4514
g62
(dp4515
g82
g83
ssg71
g4509
sg64
(lp4516
S'keywords'
p4517
asbag57
(g78
g59
NtRp4518
(dp4519
g62
(dp4520
g89
g90
ssg71
g4509
sg64
(lp4521
S':'
asbag57
(g78
g59
NtRp4522
(dp4523
g62
(dp4524
sg71
g4509
sg64
(lp4525
g57
(g58
g59
NtRp4526
(dp4527
g62
(dp4528
g70
I4
ssg71
g4522
sg64
(lp4529
S'web2py, python, framework'
p4530
asbasbasbasbasbasbasbag57
(g73
g59
NtRp4531
(dp4532
g62
(dp4533
sg71
g3264
sg64
(lp4534
g57
(g78
g59
NtRp4535
(dp4536
g62
(dp4537
g82
g83
ssg71
g4531
sg64
(lp4538
S'models_to_run'
p4539
asbag57
(g78
g59
NtRp4540
(dp4541
g62
(dp4542
g89
g90
ssg71
g4531
sg64
(lp4543
S':'
asbag57
(g78
g59
NtRp4544
(dp4545
g62
(dp4546
sg71
g4531
sg64
(lp4547
g57
(g58
g59
NtRp4548
(dp4549
g62
(dp4550
g70
I5
ssg71
g4544
sg64
(lp4551
g57
(g66
g59
NtRp4552
(dp4553
g62
(dp4554
g70
I4
ssg71
Nsg64
(lp4555
g57
(g73
g59
NtRp4556
(dp4557
g62
(dp4558
sg71
g4552
sg64
(lp4559
g57
(g78
g59
NtRp4560
(dp4561
g62
(dp4562
sg71
g4556
sg64
(lp4563
g57
(g58
g59
NtRp4564
(dp4565
g62
(dp4566
g70
I4
ssg71
g4560
sg64
(lp4567
S'^\\w+\\.py$'
p4568
asbasbasbag57
(g73
g59
NtRp4569
(dp4570
g62
(dp4571
sg71
g4552
sg64
(lp4572
g57
(g78
g59
NtRp4573
(dp4574
g62
(dp4575
sg71
g4569
sg64
(lp4576
g57
(g58
g59
NtRp4577
(dp4578
g62
(dp4579
g70
I4
ssg71
g4573
sg64
(lp4580
S'^default/\\w+\\.py$'
p4581
asbasbasbag57
(g73
g59
NtRp4582
(dp4583
g62
(dp4584
sg71
g4552
sg64
(lp4585
g57
(g78
g59
NtRp4586
(dp4587
g62
(dp4588
sg71
g4582
sg64
(lp4589
g57
(g58
g59
NtRp4590
(dp4591
g62
(dp4592
g70
I4
ssg71
g4586
sg64
(lp4593
S'^default/index/\\w+\\.py$'
p4594
asbasbasbasbasbasbasbag57
(g73
g59
NtRp4595
(dp4596
g62
(dp4597
sg71
g3264
sg64
(lp4598
g57
(g78
g59
NtRp4599
(dp4600
g62
(dp4601
g82
g83
ssg71
g4595
sg64
(lp4602
S'postprocessing'
p4603
asbag57
(g78
g59
NtRp4604
(dp4605
g62
(dp4606
g89
g90
ssg71
g4595
sg64
(lp4607
S':'
asbag57
(g78
g59
NtRp4608
(dp4609
g62
(dp4610
sg71
g4595
sg64
(lp4611
g57
(g58
g59
NtRp4612
(dp4613
g62
(dp4614
g70
I5
ssg71
g4608
sg64
(lp4615
g57
(g66
g59
NtRp4616
(dp4617
g62
(dp4618
g70
I4
ssg71
Nsg64
(lp4619
sbasbasbasbag57
(g73
g59
NtRp4620
(dp4621
g62
(dp4622
sg71
g3264
sg64
(lp4623
g57
(g78
g59
NtRp4624
(dp4625
g62
(dp4626
g82
g83
ssg71
g4620
sg64
(lp4627
S'session_cookie_expires'
p4628
asbag57
(g78
g59
NtRp4629
(dp4630
g62
(dp4631
g89
g90
ssg71
g4620
sg64
(lp4632
S':'
asbag57
(g78
g59
NtRp4633
(dp4634
g62
(dp4635
sg71
g4620
sg64
(lp4636
g57
(g58
g59
NtRp4637
(dp4638
g62
(dp4639
g70
I5
ssg71
g4633
sg64
(lp4640
S'None'
p4641
asbasbasbag57
(g73
g59
NtRp4642
(dp4643
g62
(dp4644
sg71
g3264
sg64
(lp4645
g57
(g78
g59
NtRp4646
(dp4647
g62
(dp4648
g82
g83
ssg71
g4642
sg64
(lp4649
S'session_data_name'
p4650
asbag57
(g78
g59
NtRp4651
(dp4652
g62
(dp4653
g89
g90
ssg71
g4642
sg64
(lp4654
S':'
asbag57
(g78
g59
NtRp4655
(dp4656
g62
(dp4657
sg71
g4642
sg64
(lp4658
g57
(g58
g59
NtRp4659
(dp4660
g62
(dp4661
g70
I5
ssg71
g4655
sg64
(lp4662
S'session_data_nouvelles_en_ligne'
p4663
asbasbasbag57
(g73
g59
NtRp4664
(dp4665
g62
(dp4666
sg71
g3264
sg64
(lp4667
g57
(g78
g59
NtRp4668
(dp4669
g62
(dp4670
g82
g83
ssg71
g4664
sg64
(lp4671
S'session_filename'
p4672
asbag57
(g78
g59
NtRp4673
(dp4674
g62
(dp4675
g89
g90
ssg71
g4664
sg64
(lp4676
S':'
asbag57
(g78
g59
NtRp4677
(dp4678
g62
(dp4679
sg71
g4664
sg64
(lp4680
g57
(g58
g59
NtRp4681
(dp4682
g62
(dp4683
g70
I5
ssg71
g4677
sg64
(lp4684
S'/home/vanshika/vanshu/c pro/itws/itws2/web2py/applications/NOUVELLES_EN_LIGNE/sessions/127.0.0.1-d84a8056-1129-4921-a355-3d7c7307955e'
p4685
asbasbasbag57
(g73
g59
NtRp4686
(dp4687
g62
(dp4688
sg71
g3264
sg64
(lp4689
g57
(g78
g59
NtRp4690
(dp4691
g62
(dp4692
g82
g83
ssg71
g4686
sg64
(lp4693
S'session_id'
p4694
asbag57
(g78
g59
NtRp4695
(dp4696
g62
(dp4697
g89
g90
ssg71
g4686
sg64
(lp4698
S':'
asbag57
(g78
g59
NtRp4699
(dp4700
g62
(dp4701
sg71
g4686
sg64
(lp4702
g57
(g58
g59
NtRp4703
(dp4704
g62
(dp4705
g70
I5
ssg71
g4699
sg64
(lp4706
g3334
asbasbasbag57
(g73
g59
NtRp4707
(dp4708
g62
(dp4709
sg71
g3264
sg64
(lp4710
g57
(g78
g59
NtRp4711
(dp4712
g62
(dp4713
g82
g83
ssg71
g4707
sg64
(lp4714
S'session_id_name'
p4715
asbag57
(g78
g59
NtRp4716
(dp4717
g62
(dp4718
g89
g90
ssg71
g4707
sg64
(lp4719
S':'
asbag57
(g78
g59
NtRp4720
(dp4721
g62
(dp4722
sg71
g4707
sg64
(lp4723
g57
(g58
g59
NtRp4724
(dp4725
g62
(dp4726
g70
I5
ssg71
g4720
sg64
(lp4727
g3321
asbasbasbag57
(g73
g59
NtRp4728
(dp4729
g62
(dp4730
sg71
g3264
sg64
(lp4731
g57
(g78
g59
NtRp4732
(dp4733
g62
(dp4734
g82
g83
ssg71
g4728
sg64
(lp4735
S'session_new'
p4736
asbag57
(g78
g59
NtRp4737
(dp4738
g62
(dp4739
g89
g90
ssg71
g4728
sg64
(lp4740
S':'
asbag57
(g78
g59
NtRp4741
(dp4742
g62
(dp4743
sg71
g4728
sg64
(lp4744
g57
(g58
g59
NtRp4745
(dp4746
g62
(dp4747
g70
I5
ssg71
g4741
sg64
(lp4748
g1769
asbasbasbag57
(g73
g59
NtRp4749
(dp4750
g62
(dp4751
sg71
g3264
sg64
(lp4752
g57
(g78
g59
NtRp4753
(dp4754
g62
(dp4755
g82
g83
ssg71
g4749
sg64
(lp4756
S'session_storage_type'
p4757
asbag57
(g78
g59
NtRp4758
(dp4759
g62
(dp4760
g89
g90
ssg71
g4749
sg64
(lp4761
S':'
asbag57
(g78
g59
NtRp4762
(dp4763
g62
(dp4764
sg71
g4749
sg64
(lp4765
g57
(g58
g59
NtRp4766
(dp4767
g62
(dp4768
g70
I5
ssg71
g4762
sg64
(lp4769
g3200
asbasbasbag57
(g73
g59
NtRp4770
(dp4771
g62
(dp4772
sg71
g3264
sg64
(lp4773
g57
(g78
g59
NtRp4774
(dp4775
g62
(dp4776
g82
g83
ssg71
g4770
sg64
(lp4777
S'status'
p4778
asbag57
(g78
g59
NtRp4779
(dp4780
g62
(dp4781
g89
g90
ssg71
g4770
sg64
(lp4782
S':'
asbag57
(g78
g59
NtRp4783
(dp4784
g62
(dp4785
sg71
g4770
sg64
(lp4786
g57
(g58
g59
NtRp4787
(dp4788
g62
(dp4789
g70
I5
ssg71
g4783
sg64
(lp4790
S'200'
p4791
asbasbasbag57
(g73
g59
NtRp4792
(dp4793
g62
(dp4794
sg71
g3264
sg64
(lp4795
g57
(g78
g59
NtRp4796
(dp4797
g62
(dp4798
g82
g83
ssg71
g4792
sg64
(lp4799
S'subtitle'
p4800
asbag57
(g78
g59
NtRp4801
(dp4802
g62
(dp4803
g89
g90
ssg71
g4792
sg64
(lp4804
S':'
asbag57
(g78
g59
NtRp4805
(dp4806
g62
(dp4807
sg71
g4792
sg64
(lp4808
g57
(g58
g59
NtRp4809
(dp4810
g62
(dp4811
g70
I5
ssg71
g4805
sg64
(lp4812
g3799
(S's\r\x00\x00\x00customize me!'
tRp4813
asbasbasbag57
(g73
g59
NtRp4814
(dp4815
g62
(dp4816
sg71
g3264
sg64
(lp4817
g57
(g78
g59
NtRp4818
(dp4819
g62
(dp4820
g82
g83
ssg71
g4814
sg64
(lp4821
S'title'
p4822
asbag57
(g78
g59
NtRp4823
(dp4824
g62
(dp4825
g89
g90
ssg71
g4814
sg64
(lp4826
S':'
asbag57
(g78
g59
NtRp4827
(dp4828
g62
(dp4829
sg71
g4814
sg64
(lp4830
g57
(g58
g59
NtRp4831
(dp4832
g62
(dp4833
g70
I5
ssg71
g4827
sg64
(lp4834
S'Nouvelles En Ligne'
p4835
asbasbasbag57
(g73
g59
NtRp4836
(dp4837
g62
(dp4838
sg71
g3264
sg64
(lp4839
g57
(g78
g59
NtRp4840
(dp4841
g62
(dp4842
g82
g83
ssg71
g4836
sg64
(lp4843
S'view'
p4844
asbag57
(g78
g59
NtRp4845
(dp4846
g62
(dp4847
g89
g90
ssg71
g4836
sg64
(lp4848
S':'
asbag57
(g78
g59
NtRp4849
(dp4850
g62
(dp4851
sg71
g4836
sg64
(lp4852
g57
(g58
g59
NtRp4853
(dp4854
g62
(dp4855
g70
I5
ssg71
g4849
sg64
(lp4856
S'default/index.html'
p4857
asbasbasbasbasbsS'locals'
p4858
(dp4859
S'Service'
p4860
S"<class 'gluon.tools.Service'>"
p4861
sS'OBJECT'
p4862
S"<class 'gluon.html.OBJECT'>"
p4863
sS'SQLDB'
p4864
S"<class 'gluon.dal.DAL'>"
p4865
sg3246
S'<Storage {}>'
p4866
sS'LINK'
p4867
S"<class 'gluon.html.LINK'>"
p4868
sS'BR'
p4869
S"<class 'gluon.html.BR'>"
p4870
sS'local_import'
p4871
S'<function <lambda>>'
p4872
sS'OPTGROUP'
p4873
S"<class 'gluon.html.OPTGROUP'>"
p4874
sS'__package__'
p4875
S'None'
p4876
sS'PRE'
p4877
S"<class 'gluon.html.PRE'>"
p4878
sS'IS_INT_IN_RANGE'
p4879
S"<class 'gluon.validators.IS_INT_IN_RANGE'>"
p4880
sS'IS_LOWER'
p4881
S"<class 'gluon.validators.IS_LOWER'>"
p4882
sS'IS_STRONG'
p4883
S"<class 'gluon.validators.IS_STRONG'>"
p4884
sS'cache'
p4885
S'<gluon.cache.Cache object>'
p4886
sS'IS_IN_DB'
p4887
S"<class 'gluon.validators.IS_IN_DB'>"
p4888
sS'TAG'
p4889
S'<gluon.html.__TAG__ object>'
p4890
sS'SQLField'
p4891
S"<class 'gluon.dal.Field'>"
p4892
sS'mail'
p4893
S'<gluon.tools.Mail object>'
p4894
sS'BODY'
p4895
S"<class 'gluon.html.BODY'>"
p4896
sS'IS_DATE_IN_RANGE'
p4897
S"<class 'gluon.validators.IS_DATE_IN_RANGE'>"
p4898
sS'TH'
p4899
S"<class 'gluon.html.TH'>"
p4900
sS'URL'
p4901
S'<function URL>'
p4902
sS'__file__'
p4903
S"'/home/vanshika/vanshu/c pro/itws/itws2/web2py/applications/NOUVELLES_EN_LIGNE/controllers/default.py'"
p4904
sS'db'
p4905
S'<DAL uri="sqlite://storage.sqlite">'
p4906
sS'auth'
p4907
S'<gluon.tools.Auth object>'
p4908
sS'P'
S"<class 'gluon.html.P'>"
p4909
sS'TFOOT'
p4910
S"<class 'gluon.html.TFOOT'>"
p4911
sS'XHTML'
p4912
S"<class 'gluon.html.XHTML'>"
p4913
sS'datetime'
p4914
S"<module 'datetime' from '/usr/lib/python2.7/lib-dynload/datetime.so'>"
p4915
sS'ON'
p4916
g1769
sS'OL'
p4917
S"<class 'gluon.html.OL'>"
p4918
sS'TEXTAREA'
p4919
S"<class 'gluon.html.TEXTAREA'>"
p4920
sS'MENU'
p4921
S"<class 'gluon.html.MENU'>"
p4922
sS'LOAD'
p4923
S'<function LOAD>'
p4924
sS'CODE'
p4925
S"<class 'gluon.html.CODE'>"
p4926
sS'HTTP'
p4927
S"<class 'gluon.http.HTTP'>"
p4928
sS'HR'
p4929
S"<class 'gluon.html.HR'>"
p4930
sS'IS_DATETIME'
p4931
S"<class 'gluon.validators.IS_DATETIME'>"
p4932
sS'HEAD'
p4933
S"<class 'gluon.html.HEAD'>"
p4934
sS'LABEL'
p4935
S"<class 'gluon.html.LABEL'>"
p4936
sS'CLEANUP'
p4937
S"<class 'gluon.validators.CLEANUP'>"
p4938
sS'plugins'
p4939
S'<gluon.tools.PluginManager object>'
p4940
sS'SELECT'
p4941
S"<class 'gluon.html.SELECT'>"
p4942
sS'use_janrain'
p4943
S'<function use_janrain>'
p4944
sS'CENTER'
p4945
S"<class 'gluon.html.CENTER'>"
p4946
sS'prettydate'
p4947
S'<function prettydate>'
p4948
sS'Crud'
p4949
S"<class 'gluon.tools.Crud'>"
p4950
sS'Auth'
p4951
S"<class 'gluon.tools.Auth'>"
p4952
sS'DEVELOPMENT_MENU'
p4953
g1769
sS'__builtins__'
p4954
S"{'ArithmeticError': <type 'exceptions.ArithmeticError'>, 'AssertionError': <type 'exceptions.AssertionError'>, 'AttributeError': <type 'exceptions.AttributeError'>, 'BaseException': <type 'exceptions.BaseException'>, 'BufferError': <type 'exceptions.BufferError'>, 'BytesWarning': <type 'exceptions.BytesWarning'>, 'DeprecationWarning': <type 'exceptions.DeprecationWarning'>, 'EOFError': <type 'exceptions.EOFError'>, 'Ellipsis': Ellipsis, 'EnvironmentError': <type 'exceptions.EnvironmentError'>, ...}"
p4955
sS'HTML'
p4956
S"<class 'gluon.html.HTML'>"
p4957
sS'SQLFORM'
p4958
S"<class 'gluon.sqlhtml.SQLFORM'>"
p4959
sS'EM'
p4960
S"<class 'gluon.html.EM'>"
p4961
sS'redirect'
p4962
S'<function redirect>'
p4963
sS'FIELDSET'
p4964
S"<class 'gluon.html.FIELDSET'>"
p4965
sS'IS_EQUAL_TO'
p4966
S"<class 'gluon.validators.IS_EQUAL_TO'>"
p4967
sS'embed64'
p4968
S'<function embed64>'
p4969
sS'IS_LIST_OF'
p4970
S"<class 'gluon.validators.IS_LIST_OF'>"
p4971
sS'__name__'
p4972
S"'__restricted__'"
p4973
sS'EMBED'
p4974
S"<class 'gluon.html.EMBED'>"
p4975
sS'index1'
p4976
S'<function index1>'
p4977
sS'_'
S'<function _>'
p4978
sS'FORM'
p4979
S"<class 'gluon.html.FORM'>"
p4980
sS'H2'
p4981
S"<class 'gluon.html.H2'>"
p4982
sS'H3'
p4983
S"<class 'gluon.html.H3'>"
p4984
sS'BUTTON'
p4985
S"<class 'gluon.html.BUTTON'>"
p4986
sS'H1'
p4987
S"<class 'gluon.html.H1'>"
p4988
sS'H6'
p4989
S"<class 'gluon.html.H6'>"
p4990
sS'H4'
p4991
S"<class 'gluon.html.H4'>"
p4992
sS'H5'
p4993
S"<class 'gluon.html.H5'>"
p4994
sS'UL'
p4995
S"<class 'gluon.html.UL'>"
p4996
sS'IS_UPPER'
p4997
S"<class 'gluon.validators.IS_UPPER'>"
p4998
sS'xmlescape'
p4999
S'<function xmlescape>'
p5000
sS'IS_TIME'
p5001
S"<class 'gluon.validators.IS_TIME'>"
p5002
sS'OPTION'
p5003
S"<class 'gluon.html.OPTION'>"
p5004
sS'TITLE'
p5005
S"<class 'gluon.html.TITLE'>"
p5006
sS'CRYPT'
p5007
S"<class 'gluon.validators.CRYPT'>"
p5008
sS'IS_EMPTY_OR'
p5009
S"<class 'gluon.validators.IS_EMPTY_OR'>"
p5010
sS'MARKMIN'
p5011
S"<class 'gluon.html.MARKMIN'>"
p5012
sS'INPUT'
p5013
S"<class 'gluon.html.INPUT'>"
p5014
sS'STRONG'
p5015
S"<class 'gluon.html.STRONG'>"
p5016
sS'COL'
p5017
S"<class 'gluon.html.COL'>"
p5018
sS'service'
p5019
S'<gluon.tools.Service object>'
p5020
sS'SCRIPT'
p5021
S"<class 'gluon.html.SCRIPT'>"
p5022
sS'TABLE'
p5023
S"<class 'gluon.html.TABLE'>"
p5024
sS'IS_IPV4'
p5025
S"<class 'gluon.validators.IS_IPV4'>"
p5026
sS'IS_LENGTH'
p5027
S"<class 'gluon.validators.IS_LENGTH'>"
p5028
sS'XML'
p5029
S"<class 'gluon.html.XML'>"
p5030
sS'B'
S"<class 'gluon.html.B'>"
p5031
sS'IMG'
p5032
S"<class 'gluon.html.IMG'>"
p5033
sS'SQLTABLE'
p5034
S"<class 'gluon.sqlhtml.SQLTABLE'>"
p5035
sS'IS_MATCH'
p5036
S"<class 'gluon.validators.IS_MATCH'>"
p5037
sS'IS_ALPHANUMERIC'
p5038
S"<class 'gluon.validators.IS_ALPHANUMERIC'>"
p5039
sS'SPAN'
p5040
S"<class 'gluon.html.SPAN'>"
p5041
sS'IS_SLUG'
p5042
S"<class 'gluon.validators.IS_SLUG'>"
p5043
sS'BEAUTIFY'
p5044
S"<class 'gluon.html.BEAUTIFY'>"
p5045
sS'META'
p5046
S"<class 'gluon.html.META'>"
p5047
sS'IS_DATE'
p5048
S"<class 'gluon.validators.IS_DATE'>"
p5049
sS'IS_EMAIL'
p5050
S"<class 'gluon.validators.IS_EMAIL'>"
p5051
sS'IS_NOT_EMPTY'
p5052
S"<class 'gluon.validators.IS_NOT_EMPTY'>"
p5053
sS'IS_FLOAT_IN_RANGE'
p5054
S"<class 'gluon.validators.IS_FLOAT_IN_RANGE'>"
p5055
sS'TBODY'
p5056
S"<class 'gluon.html.TBODY'>"
p5057
sS'CAT'
p5058
S"<class 'gluon.html.CAT'>"
p5059
sS'Field'
p5060
S"<class 'gluon.dal.Field'>"
p5061
sS'DIV'
p5062
S"<class 'gluon.html.DIV'>"
p5063
sS'LEGEND'
p5064
S"<class 'gluon.html.LEGEND'>"
p5065
sS'COLGROUP'
p5066
S"<class 'gluon.html.COLGROUP'>"
p5067
sS'DAL'
p5068
S"<class 'gluon.dal.DAL'>"
p5069
sS'TT'
p5070
S"<class 'gluon.html.TT'>"
p5071
sS'TR'
p5072
S"<class 'gluon.html.TR'>"
p5073
sS'LI'
p5074
S"<class 'gluon.html.LI'>"
p5075
sS'IFRAME'
p5076
S"<class 'gluon.html.IFRAME'>"
p5077
sS'TD'
p5078
S"<class 'gluon.html.TD'>"
p5079
sS'PluginManager'
p5080
S"<class 'gluon.tools.PluginManager'>"
p5081
sS'IS_URL'
p5082
S"<class 'gluon.validators.IS_URL'>"
p5083
sS'A'
S"<class 'gluon.html.A'>"
p5084
sS'STYLE'
p5085
S"<class 'gluon.html.STYLE'>"
p5086
sS'IS_DATETIME_IN_RANGE'
p5087
S"<class 'gluon.validators.IS_DATETIME_IN_RANGE'>"
p5088
sS'IS_IMAGE'
p5089
S"<class 'gluon.validators.IS_IMAGE'>"
p5090
sS'I'
S"<class 'gluon.html.I'>"
p5091
sS'crud'
p5092
S'<gluon.tools.Crud object>'
p5093
sS'IS_NOT_IN_DB'
p5094
S"<class 'gluon.validators.IS_NOT_IN_DB'>"
p5095
sS'user'
p5096
S'<function user>'
p5097
sg3259
S"<Storage {'body': <cStringIO.StringO object at 0...da> at 0x9d0d224>, 'view': 'default/index.html'}>"
p5098
sS'THEAD'
p5099
S"<class 'gluon.html.THEAD'>"
p5100
sS'IS_NULL_OR'
p5101
S"<class 'gluon.validators.IS_EMPTY_OR'>"
p5102
sg56
S"<Storage {'function': 'index', 'body': <cStringI...NOUVELLES_EN_LIGNE/', 'post_vars': <Storage {}>}>"
p5103
sS'IS_EXPR'
p5104
S"<class 'gluon.validators.IS_EXPR'>"
p5105
sS'IS_IN_SET'
p5106
S"<class 'gluon.validators.IS_IN_SET'>"
p5107
sS'IS_UPLOAD_FILENAME'
p5108
S"<class 'gluon.validators.IS_UPLOAD_FILENAME'>"
p5109
sS'IS_DECIMAL_IN_RANGE'
p5110
S"<class 'gluon.validators.IS_DECIMAL_IN_RANGE'>"
p5111
sS'T'
S'<gluon.languages.translator object>'
p5112
sssS'traceback'
p5113
S'Traceback (most recent call last):\n  File "/home/vanshika/vanshu/c pro/itws/itws2/web2py/gluon/restricted.py", line 212, in restricted\n    exec ccode in environment\n  File "/home/vanshika/vanshu/c pro/itws/itws2/web2py/applications/NOUVELLES_EN_LIGNE/controllers/default.py", line 41, in <module>\n    @cache.action()\nAttributeError: \'Cache\' object has no attribute \'action\'\n'
p5114
s.