(dp1
S'output'
p2
S"<type 'exceptions.ValueError'> invalid literal for long() with base 10: 'post.html'"
p3
sS'layer'
p4
S'/home/akshita/IIIT/II Year/III semester/SSAD/web2py/applications/NOUVELLES_EN_LIGNE/controllers/default.py'
p5
sS'code'
p6
S'# -*- coding: utf-8 -*-\n# this file is released under public domain and you can use without limitations\n\n#########################################################################\n## This is a sample controller\n## - index is the default action of any application\n## - user is required for authentication and authorization\n## - download is for downloading files uploaded in the db (does streaming)\n## - call exposes all registered services (none by default)\n#########################################################################\n\n\ndef index():\n    """\n    example action using the internationalization operator T and flash\n    rendered by views/default/index.html or views/generic.html\n\n    if you need a simple wiki simple replace the two lines below with:\n    return auth.wiki()\n    """\n    response.flash = T("Welcome to web2py!")\n    return dict(message=T(\'Hello World\'))\n\n\ndef user():\n    """\n    exposes:\n    http://..../[app]/default/user/login\n    http://..../[app]/default/user/logout\n    http://..../[app]/default/user/register\n    http://..../[app]/default/user/profile\n    http://..../[app]/default/user/retrieve_password\n    http://..../[app]/default/user/change_password\n    http://..../[app]/default/user/manage_users (requires membership in \n    use @auth.requires_login()\n        @auth.requires_membership(\'group name\')\n        @auth.requires_permission(\'read\',\'table name\',record_id)\n    to decorate functions that need access control\n    """\n    return dict(form=auth())\n\n@cache.action()\ndef download():\n    """\n    allows downloading of uploaded files\n    http://..../[app]/default/download/[filename]\n    """\n    return response.download(request, db)\n\n\ndef call():\n    """\n    exposes services. for example:\n    http://..../[app]/default/call/jsonrpc\n    decorate with @services.jsonrpc the functions to expose\n    supports xml, json, xmlrpc, jsonrpc, amfrpc, rss, csv\n    """\n    return service()\n\n\n@auth.requires_signature()\ndef data():\n    """\n    http://..../[app]/default/data/tables\n    http://..../[app]/default/data/create/[table]\n    http://..../[app]/default/data/read/[table]/[id]\n    http://..../[app]/default/data/update/[table]/[id]\n    http://..../[app]/default/data/delete/[table]/[id]\n    http://..../[app]/default/data/select/[table]\n    http://..../[app]/default/data/search/[table]\n    but URLs must be signed, i.e. linked with\n      A(\'table\',_href=URL(\'data/tables\',user_signature=True))\n    or with the signed load operator\n      LOAD(\'default\',\'data.load\',args=\'tables\',ajax=True,user_signature=True)\n    """\n    return dict(form=crud())\nimport datetime\ndef home():\n\ta=db(db.news.id > 0).select(db.news.ALL,orderby=~db.news.ranks)\n\ty=[]\n\tt=[]\n\tm1 = db(db.category.id > 0).select(db.category.ALL)\n\tfor k in m1:\n\t\tw=k.name\n\t\tt.append(w)\n#for k in m1:\n#\t\tt.append(k.name)\n\tfor k in a:\n\t\tx={}\n\t\tid2 = k[\'posted_by\']\n\t\tc = db((db.news.posted_by == id2) & (db.auth_user.id == db.news.posted_by)).select(db.auth_user.ALL)[0]\n\t\tid1=k[\'Category\']\n\t\tb=db((db.news.Category == id1) & (db.category.id == db.news.Category)).select(db.category.ALL)[0]\n\t\tx[\'Head\']=k[\'Heading\']\n\t\tx[\'Cat\']=b[\'name\']\n\t\tx[\'dislikes\']=str(k[\'dislikes\'])\n\t\tx[\'id\']=k[\'id\']\n\t\tx[\'Des\']=k[\'Description\']\n\t\tx[\'By\']=str(c[\'first_name\'])+" " +str(c[\'last_name\'])\n\t\tx[\'On\']=k[\'posted_on\']\n\t\tx[\'likes\']=str(k[\'likes\'])\n\t\tx[\'url\']=k[\'Url\']\n\t\tx[\'video\']=k[\'video\']\n\t\ty.append(x)\n\t\t\n\treturn locals()\ndef catgry():\n\ta=db(db.category.id > 0).select(db.category.ALL)\n\tt=[]\n\tfor k in a:\n\t\tw=k.name\n\t\tt.append(w)\n\tfor k in a:\n\t\tprint request.args(0)\n\t\tif k[\'name\']==request.args(0):\n\t\t\tz=k[\'id\']\n\t\t\ty=[]\n\t\t\tc=db((db.category.id == z)&(db.news.Category==db.category.id)).select(db.news.ALL,orderby=~db.news.ranks)\n\t\t\tfor w in c:\n\t\t\t\tx={}\n\t\t\t\tid2 = w[\'posted_by\']\n\t\t\t\tc1 = db((db.news.posted_by == id2) & (db.auth_user.id == db.news.posted_by)).select(db.auth_user.ALL)[0]\n\t\t\t\tx[\'Head\']=w[\'Heading\']\n\t\t\t\tx[\'Cat\']=k[\'name\']\n\t\t\t\tx[\'Des\']=w[\'Description\']\n\t\t\t\tx[\'By\']=str(c1[\'first_name\'])+" " +str(c1[\'last_name\'])\n\t\t\t\tx[\'On\']=w[\'posted_on\']\n\t\t\t\tx[\'likes\']=str(w[\'likes\'])\n\t\t\t\tx[\'dislikes\']=str(w[\'dislikes\'])\n\t\t\t\tx[\'url\']=w[\'Url\']\n\t\t\t\tx[\'video\']=w[\'video\']\n\t\t\t\tx[\'id\']=w[\'id\']\n\t\t\t\ty.append(x)\n\n\treturn locals()\n@auth.requires_login()\t\ndef post():\n#\tdb.news.likes.writable=db.news.likes.readable=False\n#idb.news.cmmnt.writable=db.news.cmmnt.readable=False\n\tdb.news.posted_on.readable=db.news.posted_on.writable=False\n\tdb.news.likes.readable=db.news.likes.writable=False\n\tdb.news.dislikes.readable=db.news.dislikes.writable=False\n\tdb.news.ranks.readable=db.news.ranks.writable=False\n\tusr=db(db.auth_user.id==auth.user_id).select(db.auth_user.ALL)[0]\n\tdb.news.posted_by.default=usr[\'id\']\n\tdb.news.posted_by.readable=db.news.posted_by.writable=False\n\tdb.LD.new_id.default=db.news.id\n\tdb.news.likes.readable=db.news.likes.writable=False\n\tform=SQLFORM(db.news)\n\tif form.process().accepted:\n\t\tsession.flash=\'Your post is successful\'\n\t\tredirect(URL(r=request,f=\'home\'))\n\telif form.errors:\n\t\tsession.flash=\'Error in posting\'\n\treturn locals()\ndef view():\n\tid1=request.args(0)\n\ta1=db(db.category.id > 0).select(db.category.ALL)\n\tt=[]\n\tfor k in a1:\n\t\tw=k.name\n\t\tt.append(w)\n\ta=db((db.comments.id>0)&(db.comments.new_id==id1)).select(db.comments.ALL)\n\tb=db(db.news.id==id1).select(db.news.ALL)[0]\n\tp=db((db.category.id==db.news.Category)&(db.news.id==id1)).select(db.category.ALL)[0]\n\tm={}\n\tm[\'Head\']=b.Heading\n\tm[\'on\']=b.posted_on\n\tm[\'Cat\']=p.name\n\tm[\'by\']=b.posted_by\n\tm[\'Des\']=b.Description\n\tm[\'url\']=b.Url\n\tm[\'id\']=b.id\n\tm[\'likes\']=b.likes\n\tm[\'video\']=b.video\n\tm[\'dislikes\']=b.dislikes\n\ty=[]\n\tfor k in a:\n\t\tx={}\n\t\n\t\tx[\'body\']=k[\'body\']\n\t\tx[\'on\']=k[\'commented_on\']\n\t\tx[\'by\']=k[\'commented_by\']\n\t\ty.append(x)\n\tz1=[]\n\tz1.append(m)\n\treturn locals()\n@auth.requires_login()\ndef likes_h():\n\tid1=request.args(0)\n\ta=db(db.news.id == id1).select(db.news.ALL)[0]\n\td = db(db.auth_user.id == auth.user_id).select(db.auth_user.ALL)[0]\n\tdb.LD.update_or_insert(new_id=id1,usr=d[\'id\'])\n\tx=db((db.LD.new_id==id1)&(db.LD.usr==d[\'id\'])).select(db.LD.ALL)[0]\n\tif x.l == True and x.d == False:\n\t\tx.l=False\n\t\ta.likes-=1\n\t\ta.ranks-=5\n\t\tsession.flash="You have unliked the news"\n\telif x.l==False and x.d==True:\n\t\tx.l=True\n\t\tx.d=False\n\t\ta.likes+=1\n\t\ta.ranks+=8\n\t\tsession.flash="You have liked the news"\n\telif x.l==False and x.d==False:\n\t\tx.l=True\n\t\ta.ranks+=5\n\t\ta.likes+=1\n\t\tsession.flash="You have liked the news"\n\tx.update_record()\n\ta.update_record()\n\tredirect(URL(r=request,f=home))\n\treturn locals()\n@auth.requires_login()\ndef unlike_c():\n\tid1=request.args(0)\n\ta=db(db.news.id == id1).select(db.news.ALL)[0]\n\ty=db((db.news.id==id1)&(db.news.Category == db.category.id)).select(db.category.ALL)[0]\n\td = db(db.auth_user.id == auth.user_id).select(db.auth_user.ALL)[0]\n\tdb.LD.update_or_insert(new_id=id1,usr=d[\'id\'])\n\tx=db((db.LD.new_id==id1)&(db.LD.usr==d[\'id\'])).select(db.LD.ALL)[0]\n\tif x.l == True and x.d == False:\n\t\tx.d=True\n\t\tx.l=False\n\t\ta.dislikes+=1\n\t\ta.ranks-=8\n\t\tsession.flash="You have disliked the news"\n\telif x.l==False and x.d==True:\n\t\tx.d=False\n\t\ta.ranks+=3\n\t\ta.dislikes-=1\n\t\tsession.flash="You have reverted your dislike"\n\telif x.l==False and x.d==False:\n\t\tx.d=True\n\t\ta.ranks-=3\n\t\ta.dislikes+=1\n\t\tsession.flash="You have disliked the news"\n\tx.update_record()\n\ta.update_record()\n\tz="catgry.html/"+str(y[\'name\'])\n\tredirect(URL(r=request,f=z))\n\treturn locals()\n@auth.requires_login()\ndef likes_c():\n\tid1=request.args(0)\n\ta=db(db.news.id == id1).select(db.news.ALL)[0]\n\ty=db((db.news.id==id1)&(db.news.Category == db.category.id)).select(db.category.ALL)[0]\n\td = db(db.auth_user.id == auth.user_id).select(db.auth_user.ALL)[0]\n\tdb.LD.update_or_insert(new_id=id1,usr=d[\'id\'])\n\tx=db((db.LD.new_id==id1)&(db.LD.usr==d[\'id\'])).select(db.LD.ALL)[0]\n\tif x.l == True and x.d == False:\n\t\tx.l=False\n\t\ta.ranks-=5\n\t\ta.likes-=1\n\t\tsession.flash="You have unliked the news"\n\telif x.l==False and x.d==True:\n\t\tx.l=True\n\t\tx.d=False\n\t\ta.likes+=1\n\t\ta.ranks+=8\n\t\tsession.flash="You have liked the news"\n\telif x.l==False and x.d==False:\n\t\tx.l=True\n\t\ta.ranks+=5\n\t\ta.likes+=1\n\t\tsession.flash="You have liked the news"\n\tx.update_record()\n\ta.update_record()\n\tz="catgry.html/"+str(y[\'name\'])\n\tredirect(URL(r=request,f=z))\n\treturn locals()\n@auth.requires_login()\ndef unlike_h():\n\tid1=request.args(0)\n\ta=db(db.news.id == id1).select(db.news.ALL)[0]\n\td = db(db.auth_user.id == auth.user_id).select(db.auth_user.ALL)[0]\n\tdb.LD.update_or_insert(new_id=id1,usr=d[\'id\'])\n\tx=db((db.LD.new_id==id1)&(db.LD.usr==d[\'id\'])).select(db.LD.ALL)[0]\n\tif x.l == True and x.d == False:\n\t\tx.d=True\n\t\tx.l=False\n\t\ta.dislikes+=1\n\t\ta.ranks-=8\n\t\tsession.flash="You have disliked the news"\n\telif x.l==False and x.d==True:\n\t\tx.d=False\n\t\ta.dislikes-=1\n\t\ta.ranks+=3\n\t\tsession.flash="You have reverted your dislike of the news"\n\telif x.l==False and x.d==False:\n\t\tx.d=True\n\t\ta.dislikes+=1\n\t\ta.ranks-=3\n\t\tsession.flash="You have disliked the news"\n\tx.update_record()\n\ta.update_record()\n\tredirect(URL(r=request,f=\'home\'))\n\treturn locals()\n@auth.requires_login()\ndef mynews():\n\tt=[]\n\tm1 = db(db.category.id > 0).select(db.category.ALL)\n\tfor k in m1:\n\t\tw=k.name\n\t\tt.append(w)\n\ty=[]\n\ta = db((db.auth_user.id == auth.user_id)&(db.news.posted_by==db.auth_user.id)).select(db.news.ALL,orderby=~db.news.likes)\n\tfor k in a:\n\t\t\t\tx={}\n\t\t\t\tx[\'Head\']=k[\'Heading\']\n\t\t\t\tx[\'Cat\']=k[\'Category\']\n\t\t\t\tx[\'Des\']=k[\'Description\']\n\t\t\t\tx[\'On\']=k[\'posted_on\']\n\t\t\t\tx[\'likes\']=str(k[\'likes\'])\n\t\t\t\tx[\'url\']=k[\'Url\']\n\t\t\t\tx[\'video\']=k[\'video\']\n\t\t\t\tx[\'id\']=k[\'id\']\n\t\t\t\ty.append(x)\n\treturn locals()\n@auth.requires_login()\ndef edit_news():\n\tid1=int(request.args(0))\n\tdb.news.likes.writable=db.news.likes.readable=False\n\tdb.news.dislikes.writable=db.news.dislikes.readable=False\n\tdb.news.posted_by.writable=db.news.posted_by.readable=False\n\tdb.news.ranks.writable=db.news.ranks.readable=False\n\tdb.news.id.writable=db.news.id.readable=False\n\tdb.news.posted_on.readable=db.news.posted_on.writable=False\n\tform=SQLFORM(db.news,id1)\n\tif form.accepts(request.vars,session):\n\t\tredirect(URL(r=request,f=mynews))\n\telif form.errors:\n\t \tresponse.flash=\'errors\'\n\treturn locals()\n@auth.requires_login()\ndef delete_news():\n\tid1=int(request.args(0))\n\tdb(db.news.id == id1).delete()\n\tredirect(URL(r=request,f=mynews))\n\treturn locals()\n@auth.requires_login()\ndef add_comments():\n\tid1=int(request.args(0))\n#a=db((db.news.id==id1)&(db.comments.new_id==db.news.id)).select(db.comments.ALL)[0]\n\ty=db((db.news.id==id1)&(db.news.Category == db.category.id)).select(db.category.ALL)[0]\n\tdb.comments.new_id.default=id1\n\tz="catgry.html/"+str(y[\'name\'])\n\tdb.comments.new_id.writable=db.comments.new_id.readable=False\n\tusr=db(db.auth_user.id==auth.user_id).select(db.auth_user.ALL)[0]\n\tdb.comments.commented_by.default=usr[\'id\']\n\tdb.comments.commented_on.default=datetime.datetime.now()\n\tdb.comments.commented_by.readable=db.comments.commented_by.writable=False\n\tdb.comments.commented_on.readable=db.comments.commented_on.writable=False\n\tform=SQLFORM(db.comments)\n\tif form.accepts(request.vars,session):\n\t\tsession.flash="Successful"\n\t\tredirect(URL(r=request,f=z))\n\telif form.errors:\n\t \tsession.flash="errors"\n\treturn locals()\nimport datetime\n@auth.requires_login()\ndef add_comments_h():\n\tid1=int(request.args(0))\n#a=db((db.news.id==id1)&(db.comments.new_id==db.news.id)).select(db.comments.ALL)[0]\n\tdb.comments.new_id.default=id1\n\tdb.comments.new_id.writable=db.comments.new_id.readable=False\n\tusr=db(db.auth_user.id==auth.user_id).select(db.auth_user.ALL)[0]\n\tdb.comments.commented_by.default=usr[\'id\']\n\tdb.comments.commented_on.default=datetime.datetime.now()\n\tdb.comments.commented_by.readable=db.comments.commented_by.writable=False\n\tdb.comments.commented_on.readable=db.comments.commented_on.writable=False\n\tform=SQLFORM(db.comments)\n\tif form.accepts(request.vars,session):\n\t\tsession.flash="Successful"\n\t\tredirect(URL(r=request,f=home))\n\telif form.errors:\n\t \tsession.flash="errors"\n\treturn locals()\n@auth.requires_login()\ndef admin_home():\n\ta=db(db.news.id > 0).select(db.news.ALL,orderby=~db.news.ranks)\n\ty=[]\n\tt=[]\n\tm1 = db(db.category.id > 0).select(db.category.ALL)\n\tfor k in m1:\n\t\tw=k.name\n\t\tt.append(w)\n#for k in m1:\n#\t\tt.append(k.name)\n\tfor k in a:\n\t\tx={}\n\t\tid2 = k[\'posted_by\']\n\t\tc = db((db.news.posted_by == id2) & (db.auth_user.id == db.news.posted_by)).select(db.auth_user.ALL)[0]\n\t\tid1=k[\'Category\']\n\t\tb=db((db.news.Category == id1) & (db.category.id == db.news.Category)).select(db.category.ALL)[0]\n\t\tx[\'Head\']=k[\'Heading\']\n\t\tx[\'Cat\']=b[\'name\']\n\t\tx[\'id\']=k[\'id\']\n\t\tx[\'dislikes\']=k[\'dislikes\']\n\t\tx[\'video\']=k[\'video\']\n\t\tx[\'Des\']=k[\'Description\']\n\t\tx[\'By\']=str(c[\'first_name\'])+" " +str(c[\'last_name\'])\n\t\tx[\'On\']=k[\'posted_on\']\n\t\tx[\'likes\']=str(k[\'likes\'])\n\t\tx[\'url\']=k[\'Url\']\n\t\ty.append(x)\t\t\n\treturn locals()\n@auth.requires_login()\ndef add_cat():\n\tform=SQLFORM(db.category)\n\tif form.accepts(request.vars,session):\n\t\tredirect(URL(r=request,f=admin_home))\n\telif form.errors:\n\t \tresponse.flash="errors"\n\treturn locals()\n@auth.requires_login()\ndef delete_admin():\n\tid1=int(request.args(0))\n\tdb(db.news.id==id1).delete()\n\tredirect(URL(r=request,f=admin_home))\n\treturn locals()\n@auth.requires_login()\ndef delete_user():\n\tid1=int(request.args(0))\n\ta=db(db.LD.usr==id1).select(db.LD.ALL)\n\tfor k in a:\n\t\tb=db(db.news.id==k[\'new_id\']).select(db.news.ALL)[0]\n\t\tif k[\'l\']==True:\n\t\t\tb.likes-=1\n\t\t\tb.ranks-=5\n\t\tif k[\'d\']==True:\n\t\t\tb.dislikes-=1\n\t\t\tb.ranks+=3\n\t\tb.update_record()\n\tdb(db.comments.commented_by==id1).delete()\t\t\n\tdb(db.news.posted_by==id1).delete()\t\t\n\tdb(db.auth_user.id == id1).delete()\n\tredirect(URL(r=request,f=admin_home))\n\treturn locals()\n@auth.requires_login()\ndef list_user():\n\tm = db(db.auth_user.id > 0).select(db.auth_user.ALL)\n\tt=[]\n\tm1 = db(db.category.id > 0).select(db.category.ALL)\n\tfor k in m1:\n\t\tw=k.name\n\t\tt.append(w)\n\ty=[]\n\tfor k in m:\n\t\tx={}\n\t\tx[\'id\']=k[\'id\']\n\t\tx[\'fn\']=k[\'first_name\']\n\t\tx[\'ln\']=k[\'last_name\']\n\t\tx[\'em\']=k[\'email\']\n\t\ty.append(x)\n\treturn locals()\ndef redirect_after_login(form):\n\t\tc  = auth.user_id\n\t\td = db(db.auth_user.id == auth.user_id).select(db.auth_user.ALL)[0]\n\t\tm = d[\'email\']\n\t\tif m == \'akshu0494@gmail.com\':\n\t\t\tredirect(URL(r=request,f=admin_home))\n\t\telse :\n\t\t\tredirect(URL(r=request,f=home))\nauth.settings.login_onaccept.append(redirect_after_login)\n\nresponse._vars=response._caller(view)\n'
p7
sS'snapshot'
p8
(dp9
sS'traceback'
p10
S'Traceback (most recent call last):\n  File "/home/akshita/IIIT/II Year/III semester/SSAD/web2py/gluon/restricted.py", line 212, in restricted\n    exec ccode in environment\n  File "/home/akshita/IIIT/II Year/III semester/SSAD/web2py/applications/NOUVELLES_EN_LIGNE/controllers/default.py", line 469, in <module>\n  File "/home/akshita/IIIT/II Year/III semester/SSAD/web2py/gluon/globals.py", line 194, in <lambda>\n    self._caller = lambda f: f()\n  File "/home/akshita/IIIT/II Year/III semester/SSAD/web2py/applications/NOUVELLES_EN_LIGNE/controllers/default.py", line 163, in view\n    a=db((db.comments.id>0)&(db.comments.new_id==id1)).select(db.comments.ALL)\n  File "/home/akshita/IIIT/II Year/III semester/SSAD/web2py/gluon/dal.py", line 9958, in select\n    return adapter.select(self.query,fields,attributes)\n  File "/home/akshita/IIIT/II Year/III semester/SSAD/web2py/gluon/dal.py", line 2245, in select\n    return super(SQLiteAdapter, self).select(query, fields, attributes)\n  File "/home/akshita/IIIT/II Year/III semester/SSAD/web2py/gluon/dal.py", line 1691, in select\n    sql = self._select(query, fields, attributes)\n  File "/home/akshita/IIIT/II Year/III semester/SSAD/web2py/gluon/dal.py", line 1601, in _select\n    sql_w = \' WHERE \' + self.expand(query) if query else \'\'\n  File "/home/akshita/IIIT/II Year/III semester/SSAD/web2py/gluon/dal.py", line 1366, in expand\n    return op(first, second, **optional_args)\n  File "/home/akshita/IIIT/II Year/III semester/SSAD/web2py/gluon/dal.py", line 1228, in AND\n    return \'(%s AND %s)\' % (self.expand(first), self.expand(second))\n  File "/home/akshita/IIIT/II Year/III semester/SSAD/web2py/gluon/dal.py", line 1366, in expand\n    return op(first, second, **optional_args)\n  File "/home/akshita/IIIT/II Year/III semester/SSAD/web2py/gluon/dal.py", line 1276, in EQ\n    self.expand(second, first.type))\n  File "/home/akshita/IIIT/II Year/III semester/SSAD/web2py/gluon/dal.py", line 1376, in expand\n    return str(self.represent(expression,field_type))\n  File "/home/akshita/IIIT/II Year/III semester/SSAD/web2py/gluon/dal.py", line 1830, in represent\n    return str(long(obj))\nValueError: invalid literal for long() with base 10: \'post.html\'\n'
p11
s.