(dp1
S'output'
p2
S"<type 'exceptions.AttributeError'> 'int' object has no attribute 'split'"
p3
sS'layer'
p4
S'/home/akshita/IIIT/II Year/III semester/SSAD/web2py/applications/NOUVELLES_EN_LIGNE/controllers/default.py'
p5
sS'code'
p6
S'# -*- coding: utf-8 -*-\n# this file is released under public domain and you can use without limitations\n\n#########################################################################\n## This is a sample controller\n## - index is the default action of any application\n## - user is required for authentication and authorization\n## - download is for downloading files uploaded in the db (does streaming)\n## - call exposes all registered services (none by default)\n#########################################################################\n\n\ndef index():\n    """\n    example action using the internationalization operator T and flash\n    rendered by views/default/index.html or views/generic.html\n\n    if you need a simple wiki simple replace the two lines below with:\n    return auth.wiki()\n    """\n    response.flash = T("Welcome to web2py!")\n    return dict(message=T(\'Hello World\'))\n\n\ndef user():\n    """\n    exposes:\n    http://..../[app]/default/user/login\n    http://..../[app]/default/user/logout\n    http://..../[app]/default/user/register\n    http://..../[app]/default/user/profile\n    http://..../[app]/default/user/retrieve_password\n    http://..../[app]/default/user/change_password\n    http://..../[app]/default/user/manage_users (requires membership in \n    use @auth.requires_login()\n        @auth.requires_membership(\'group name\')\n        @auth.requires_permission(\'read\',\'table name\',record_id)\n    to decorate functions that need access control\n    """\n    return dict(form=auth())\n\n@cache.action()\ndef download():\n    """\n    allows downloading of uploaded files\n    http://..../[app]/default/download/[filename]\n    """\n    return response.download(request, db)\n\n\ndef call():\n    """\n    exposes services. for example:\n    http://..../[app]/default/call/jsonrpc\n    decorate with @services.jsonrpc the functions to expose\n    supports xml, json, xmlrpc, jsonrpc, amfrpc, rss, csv\n    """\n    return service()\n\n\n@auth.requires_signature()\ndef data():\n    """\n    http://..../[app]/default/data/tables\n    http://..../[app]/default/data/create/[table]\n    http://..../[app]/default/data/read/[table]/[id]\n    http://..../[app]/default/data/update/[table]/[id]\n    http://..../[app]/default/data/delete/[table]/[id]\n    http://..../[app]/default/data/select/[table]\n    http://..../[app]/default/data/search/[table]\n    but URLs must be signed, i.e. linked with\n      A(\'table\',_href=URL(\'data/tables\',user_signature=True))\n    or with the signed load operator\n      LOAD(\'default\',\'data.load\',args=\'tables\',ajax=True,user_signature=True)\n    """\n    return dict(form=crud())\nimport datetime\ndef home():\n\ta=db(db.news.id > 0).select(db.news.ALL,orderby=~db.news.likes)\n\ty=[]\n\tt=[]\n\tm1 = db(db.category.id > 0).select(db.category.ALL)\n\tfor k in m1:\n\t\tw=k.name\n\t\tt.append(w)\n#for k in m1:\n#\t\tt.append(k.name)\n\tfor k in a:\n\t\tx={}\n\t\tid2 = k[\'posted_by\']\n\t\tc = db((db.news.posted_by == id2) & (db.auth_user.id == db.news.posted_by)).select(db.auth_user.ALL)[0]\n\t\tid1=k[\'Category\']\n\t\tb=db((db.news.Category == id1) & (db.category.id == db.news.Category)).select(db.category.ALL)[0]\n\t\tx[\'Head\']=k[\'Heading\']\n\t\tx[\'Cat\']=b[\'name\']\n\t\tx[\'id\']=k[\'id\']\n\t\tx[\'Des\']=k[\'Description\']\n\t\tx[\'By\']=str(c[\'first_name\'])+" " +str(c[\'last_name\'])\n\t\tx[\'On\']=k[\'posted_on\']\n\t\tx[\'likes\']=str(k[\'likes\'])\n\t\tx[\'url\']=k[\'Url\']\n\t\ty.append(x)\n\t\t\n\treturn locals()\ndef catgry():\n\ta=db(db.category.id > 0).select(db.category.ALL)\n\tt=[]\n\tfor k in a:\n\t\tw=k.name\n\t\tt.append(w)\n\tfor k in a:\n\t\tprint request.args(0)\n\t\tif k[\'name\']==request.args(0):\n\t\t\tz=k[\'id\']\n\t\t\ty=[]\n\t\t\tc=db((db.category.id == z)&(db.news.Category==db.category.id)).select(db.news.ALL,orderby=~db.news.likes)\n\t\t\tfor w in c:\n\t\t\t\tx={}\n\t\t\t\tid2 = w[\'posted_by\']\n\t\t\t\tc1 = db((db.news.posted_by == id2) & (db.auth_user.id == db.news.posted_by)).select(db.auth_user.ALL)[0]\n\t\t\t\tx[\'Head\']=w[\'Heading\']\n\t\t\t\tx[\'Cat\']=k[\'name\']\n\t\t\t\tx[\'Des\']=w[\'Description\']\n\t\t\t\tx[\'By\']=str(c1[\'first_name\'])+" " +str(c1[\'last_name\'])\n\t\t\t\tx[\'On\']=w[\'posted_on\']\n\t\t\t\tx[\'likes\']=str(w[\'likes\'])\n\t\t\t\tx[\'url\']=w[\'Url\']\n\t\t\t\tx[\'id\']=w[\'id\']\n\t\t\t\ty.append(x)\n\n\treturn locals()\n@auth.requires_login()\t\ndef post():\n#\tdb.news.likes.writable=db.news.likes.readable=False\n#idb.news.cmmnt.writable=db.news.cmmnt.readable=False\n\tdb.news.posted_on.readable=db.news.posted_on.writable=False\n\tdb.news.likes.readable=db.news.likes.writable=False\n\tform=SQLFORM(db.news)\n\tif form.process().accepted:\n\t\tresponse.flash=\'form accepted\'\n\t\tredirect(URL(r=request,f=\'home\'))\n\telif form.errors:\n\t\tresponse.flash=\'form has errors\'\n\treturn locals()\ndef show():\n\tid1=request.args(0)\n\ta=db((db.category.id==id1)&(db.news.Category==db.category.id)).select(db.news.ALL)[0]\n\tprint str(a[\'Heading\'])\n#+\'\\n\'+str(a[\'Category\'])+\'\\n\'str(a[\'Url\'])+\'\\n\'str(a[\'Description\'])+\'\\n\'str(a[\'posted_by\'])+\'\\n\'str(a[\'posted_on\'])\n\treturn locals()\ndef view():\n\ta=db(db.category.id>0).select(db.category.ALL)\n\ty=[]\n\tfor k in a:\n\t\tid1=k[\'id\']\n\t\tx=k[\'name\']\n\t\ty.append(db((db.category.id==id1)&(db.news.Category == db.category.id)).select(db.category.name,db.news.Heading,db.news.Url,db.news.posted_by,db.news.Category,db.news.posted_on,db.news.Description))\n\t\ty.append(db(db.news.id==db.comments.new_id).select(db.comments.body))\n\treturn locals()\n@auth.requires_login()\ndef likes_c():\n\tid1=request.args(0)\n\ta=db(db.news.id == id1).select(db.news.ALL)[0]\n\ty=db((db.news.id==id1)&(db.news.Category == db.category.id)).select(db.category.ALL)[0]\n\tz="catgry.html/"+str(y[\'name\'])\n\tprint z\n\ta.likes+=5\n\ta.update_record()\n\tredirect(URL(r=request,f=z))\n\treturn locals()\n@auth.requires_login()\ndef unlike_c():\n\tid1=request.args(0)\n\ta=db(db.news.id == id1).select(db.news.ALL)[0]\n\ty=db((db.news.id==id1)&(db.news.Category == db.category.id)).select(db.category.ALL)[0]\n\tz="catgry.html/"+str(y[\'name\'])\n\ta.likes-=3\n\ta.update_record()\n\tredirect(URL(r=request,f=z))\n\treturn locals()\n@auth.requires_login()\ndef likes_h():\n\tid1=request.args(0)\n\ta=db(db.news.id == id1).select(db.news.ALL)[0]\n\ta.likes+=5\n\ta.update_record()\n\tredirect(URL(r=request,f=\'home\'))\n\treturn locals()\n@auth.requires_login()\ndef unlike_h():\n\tid1=request.args(0)\n\ta=db(db.news.id == id1).select(db.news.ALL)[0]\n\ta.likes-=3\n\ta.update_record()\n\tredirect(URL(r=request,f=\'home\'))\n\treturn locals()\n@auth.requires_login()\ndef mynews():\n\tt=[]\n\tm1 = db(db.category.id > 0).select(db.category.ALL)\n\tfor k in m1:\n\t\tw=k.name\n\t\tt.append(w)\n\ty=[]\n\tm = db(db.auth_user.id == auth.user_id).select(db.auth_user.ALL)[0]\n\ta = db(db.news.id > 0).select(db.news.ALL,orderby=~db.news.likes)\n\tfor k in a:\n\t\tx={}\n\t\tif k[\'posted_by\'] == m[\'id\']:\t\n\t\t\t\tx[\'Head\']=k[\'Heading\']\n\t\t\t\tx[\'Cat\']=k[\'Category\']\n\t\t\t\tx[\'Des\']=k[\'Description\']\n\t\t\t\tx[\'On\']=k[\'posted_on\']\n\t\t\t\tx[\'likes\']=str(k[\'likes\'])\n\t\t\t\tx[\'url\']=k[\'Url\']\n\t\t\t\tx[\'id\']=k[\'id\']\n\t\t\t\ty.append(x)\n\treturn locals()\n@auth.requires_login()\ndef edit_news():\n\tid1=int(request.args(0))\n\tdb.news.likes.writable=db.news.likes.readable=False\n\tdb.news.posted_on.readable=db.news.posted_on.writable=False\n\tform=SQLFORM(db.news,id1)\n\tif form.accepts(request.vars,session):\n\t\tredirect(URL(r=request,f=mynews))\n\telif form.errors:\n\t \tresponse.flash=\'errors\'\n\treturn locals()\n@auth.requires_login()\ndef delete_news():\n\tid1=int(request.args(0))\n\tdb(db.news.id == id1).delete()\n\treturn locals()\n@auth.requires_login()\ndef add_comments():\n\tid1=int(request.args(0))\n#a=db((db.news.id==id1)&(db.comments.new_id==db.news.id)).select(db.comments.ALL)[0]\n\ty=db((db.news.id==id1)&(db.news.Category == db.category.id)).select(db.category.ALL)[0]\n\tdb.comments.new_id.default=id1\n\tz="catgry.html/"+str(y[\'name\'])\n\tdb.comments.new_id.writable=db.comments.new_id.readable=False\n\tform=SQLFORM(db.comments)\n\tif form.accepts(request.vars,session):\n\t\tredirect(URL(r=request,f=z))\n\telif form.errors:\n\t \tresponse.flash="errors"\n\treturn locals()\ndef add_comments_h():\n\tid1=int(request.args(0))\n#a=db((db.news.id==id1)&(db.comments.new_id==db.news.id)).select(db.comments.ALL)[0]\n\tdb.comments.new_id.default=id1\n\tdb.comments.new_id.writable=db.comments.new_id.readable=False\n\tform=SQLFORM(db.comments)\n\tif form.accepts(request.vars,session):\n\t\tredirect(URL(r=request,f=home))\n\telif form.errors:\n\t \tresponse.flash="errors"\n\treturn locals()\n\nresponse._vars=response._caller(home)\n'
p7
sS'snapshot'
p8
(dp9
S'exception'
p10
(dp11
S'__hash__'
p12
S"<method-wrapper '__hash__' of exceptions.AttributeError object>"
p13
sS'__setattr__'
p14
S"<method-wrapper '__setattr__' of exceptions.AttributeError object>"
p15
sS'__reduce_ex__'
p16
S'<built-in method __reduce_ex__ of exceptions.AttributeError object>'
p17
sS'__getslice__'
p18
S"<method-wrapper '__getslice__' of exceptions.AttributeError object>"
p19
sS'__getitem__'
p20
S"<method-wrapper '__getitem__' of exceptions.AttributeError object>"
p21
sS'__setstate__'
p22
S'<built-in method __setstate__ of exceptions.AttributeError object>'
p23
sS'args'
p24
S'("\'int\' object has no attribute \'split\'",)'
p25
sS'__reduce__'
p26
S'<built-in method __reduce__ of exceptions.AttributeError object>'
p27
sS'__str__'
p28
S"<method-wrapper '__str__' of exceptions.AttributeError object>"
p29
sS'__format__'
p30
S'<built-in method __format__ of exceptions.AttributeError object>'
p31
sS'__getattribute__'
p32
S"<method-wrapper '__getattribute__' of exceptions.AttributeError object>"
p33
sS'__class__'
p34
S"<type 'exceptions.AttributeError'>"
p35
sS'__unicode__'
p36
S'<built-in method __unicode__ of exceptions.AttributeError object>'
p37
sS'__delattr__'
p38
S"<method-wrapper '__delattr__' of exceptions.AttributeError object>"
p39
sS'__subclasshook__'
p40
S'<built-in method __subclasshook__ of type object>'
p41
sS'__repr__'
p42
S"<method-wrapper '__repr__' of exceptions.AttributeError object>"
p43
sS'__dict__'
p44
S'{}'
p45
sS'__sizeof__'
p46
S'<built-in method __sizeof__ of exceptions.AttributeError object>'
p47
sS'__doc__'
p48
S"'Attribute not found.'"
p49
sS'__init__'
p50
S"<method-wrapper '__init__' of exceptions.AttributeError object>"
p51
sS'__new__'
p52
S'<built-in method __new__ of type object>'
p53
ssS'evalue'
p54
S"'int' object has no attribute 'split'"
p55
sS'request'
p56
cgluon.html
XML_unpickle
p57
(S's\x8c[\x00\x00<div><table><tr><td style="font-weight:bold;vertical-align:top">ajax</td><td valign="top">:</td><td><div>False</div></td></tr><tr><td style="font-weight:bold;vertical-align:top">application</td><td valign="top">:</td><td><div>NOUVELLES_EN_LIGNE</div></td></tr><tr><td style="font-weight:bold;vertical-align:top">args</td><td valign="top">:</td><td><div><table></table></div></td></tr><tr><td style="font-weight:bold;vertical-align:top">body</td><td valign="top">:</td><td><div>&lt;cStringIO.StringO object at 0x7fc42c2a4bc8&gt;</div></td></tr><tr><td style="font-weight:bold;vertical-align:top">cid</td><td valign="top">:</td><td><div>None</div></td></tr><tr><td style="font-weight:bold;vertical-align:top">client</td><td valign="top">:</td><td><div>127.0.0.1</div></td></tr><tr><td style="font-weight:bold;vertical-align:top">controller</td><td valign="top">:</td><td><div>default</div></td></tr><tr><td style="font-weight:bold;vertical-align:top">cookies</td><td valign="top">:</td><td><div><table><tr><td style="font-weight:bold;vertical-align:top">session_id_admin</td><td valign="top">:</td><td><div>127.0.0.1-23e49fd4-a45e-4860-a32f-40990151b536<table><tr><td style="font-weight:bold;vertical-align:top">comment</td><td valign="top">:</td><td><div></div></td></tr><tr><td style="font-weight:bold;vertical-align:top">domain</td><td valign="top">:</td><td><div></div></td></tr><tr><td style="font-weight:bold;vertical-align:top">expires</td><td valign="top">:</td><td><div></div></td></tr><tr><td style="font-weight:bold;vertical-align:top">httponly</td><td valign="top">:</td><td><div></div></td></tr><tr><td style="font-weight:bold;vertical-align:top">max-age</td><td valign="top">:</td><td><div></div></td></tr><tr><td style="font-weight:bold;vertical-align:top">path</td><td valign="top">:</td><td><div></div></td></tr><tr><td style="font-weight:bold;vertical-align:top">secure</td><td valign="top">:</td><td><div></div></td></tr><tr><td style="font-weight:bold;vertical-align:top">version</td><td valign="top">:</td><td><div></div></td></tr></table></div></td></tr><tr><td style="font-weight:bold;vertical-align:top">session_id_lmsauto</td><td valign="top">:</td><td><div>127.0.0.1-7aa24e3c-989c-4869-a99e-89fd038347d9<table><tr><td style="font-weight:bold;vertical-align:top">comment</td><td valign="top">:</td><td><div></div></td></tr><tr><td style="font-weight:bold;vertical-align:top">domain</td><td valign="top">:</td><td><div></div></td></tr><tr><td style="font-weight:bold;vertical-align:top">expires</td><td valign="top">:</td><td><div></div></td></tr><tr><td style="font-weight:bold;vertical-align:top">httponly</td><td valign="top">:</td><td><div></div></td></tr><tr><td style="font-weight:bold;vertical-align:top">max-age</td><td valign="top">:</td><td><div></div></td></tr><tr><td style="font-weight:bold;vertical-align:top">path</td><td valign="top">:</td><td><div></div></td></tr><tr><td style="font-weight:bold;vertical-align:top">secure</td><td valign="top">:</td><td><div></div></td></tr><tr><td style="font-weight:bold;vertical-align:top">version</td><td valign="top">:</td><td><div></div></td></tr></table></div></td></tr><tr><td style="font-weight:bold;vertical-align:top">session_id_nouvelles_en_ligne</td><td valign="top">:</td><td><div>127.0.0.1-7e484384-59ee-4d15-ac06-3487b6021fe5<table><tr><td style="font-weight:bold;vertical-align:top">comment</td><td valign="top">:</td><td><div></div></td></tr><tr><td style="font-weight:bold;vertical-align:top">domain</td><td valign="top">:</td><td><div></div></td></tr><tr><td style="font-weight:bold;vertical-align:top">expires</td><td valign="top">:</td><td><div></div></td></tr><tr><td style="font-weight:bold;vertical-align:top">httponly</td><td valign="top">:</td><td><div></div></td></tr><tr><td style="font-weight:bold;vertical-align:top">max-age</td><td valign="top">:</td><td><div></div></td></tr><tr><td style="font-weight:bold;vertical-align:top">path</td><td valign="top">:</td><td><div></div></td></tr><tr><td style="font-weight:bold;vertical-align:top">secure</td><td valign="top">:</td><td><div></div></td></tr><tr><td style="font-weight:bold;vertical-align:top">version</td><td valign="top">:</td><td><div></div></td></tr></table></div></td></tr><tr><td style="font-weight:bold;vertical-align:top">session_id_welcome</td><td valign="top">:</td><td><div>127.0.0.1-f0bcbe00-61a4-4249-a22b-826742ea1ada<table><tr><td style="font-weight:bold;vertical-align:top">comment</td><td valign="top">:</td><td><div></div></td></tr><tr><td style="font-weight:bold;vertical-align:top">domain</td><td valign="top">:</td><td><div></div></td></tr><tr><td style="font-weight:bold;vertical-align:top">expires</td><td valign="top">:</td><td><div></div></td></tr><tr><td style="font-weight:bold;vertical-align:top">httponly</td><td valign="top">:</td><td><div></div></td></tr><tr><td style="font-weight:bold;vertical-align:top">max-age</td><td valign="top">:</td><td><div></div></td></tr><tr><td style="font-weight:bold;vertical-align:top">path</td><td valign="top">:</td><td><div></div></td></tr><tr><td style="font-weight:bold;vertical-align:top">secure</td><td valign="top">:</td><td><div></div></td></tr><tr><td style="font-weight:bold;vertical-align:top">version</td><td valign="top">:</td><td><div></div></td></tr></table></div></td></tr></table></div></td></tr><tr><td style="font-weight:bold;vertical-align:top">env</td><td valign="top">:</td><td><div><table><tr><td style="font-weight:bold;vertical-align:top">app_folders</td><td valign="top">:</td><td><div>set([&#x27;/home/akshita/IIIT/II Year/III semester/SSAD/web2py/applications/admin/&#x27;, &#x27;/home/akshita/IIIT/II Year/III semester/SSAD/web2py/applications/welcome/&#x27;, &#x27;/home/akshita/IIIT/II Year/III semester/SSAD/web2py/applications/lmsauto/&#x27;, &#x27;/home/akshita/IIIT/II Year/III semester/SSAD/web2py/applications/NOUVELLES_EN_LIGNE/&#x27;])</div></td></tr><tr><td style="font-weight:bold;vertical-align:top">applications_parent</td><td valign="top">:</td><td><div>/home/akshita/IIIT/II Year/III semester/SSAD/web2py</div></td></tr><tr><td style="font-weight:bold;vertical-align:top">cmd_args</td><td valign="top">:</td><td><div><table></table></div></td></tr><tr><td style="font-weight:bold;vertical-align:top">cmd_options</td><td valign="top">:</td><td><div>&lt;Values at 0x2f9be60: {&#x27;verbose&#x27;: False, &#x27;ip&#x27;: &#x27;127.0.0.1&#x27;, &#x27;with_scheduler&#x27;: False, &#x27;ips&#x27;: [&#x27;127.0.1.1&#x27;], &#x27;shutdown_timeout&#x27;: 5, &#x27;taskbar&#x27;: False, &#x27;with_coverage&#x27;: False, &#x27;port&#x27;: 8000, &#x27;maxthreads&#x27;: None, &#x27;softcron&#x27;: False, &#x27;server_name&#x27;: &#x27;ubuntu&#x27;, &#x27;bpython&#x27;: False, &#x27;nogui&#x27;: False, &#x27;pid_filename&#x27;: &#x27;httpserver.pid&#x27;, &#x27;extcron&#x27;: False, &#x27;runcron&#x27;: False, &#x27;run_system_tests&#x27;: False, &#x27;test&#x27;: None, &#x27;folder&#x27;: &#x27;/home/akshita/IIIT/II Year/III semester/SSAD/web2py&#x27;, &#x27;config&#x27;: &#x27;&#x27;, &#x27;minthreads&#x27;: None, &#x27;winservice&#x27;: &#x27;&#x27;, &#x27;shell&#x27;: None, &#x27;run&#x27;: &#x27;&#x27;, &#x27;log_filename&#x27;: &#x27;httpserver.log&#x27;, &#x27;debuglevel&#x27;: 30, &#x27;args&#x27;: [&#x27;&#x27;], &#x27;socket_timeout&#x27;: 5, &#x27;ssl_ca_certificate&#x27;: None, &#x27;scheduler&#x27;: None, &#x27;profiler_filename&#x27;: None, &#x27;ssl_private_key&#x27;: &#x27;&#x27;, &#x27;scheduler_groups&#x27;: None, &#x27;password&#x27;: &#x27;j&#x27;, &#x27;request_queue_size&#x27;: 5, &#x27;ssl_certificate&#x27;: &#x27;&#x27;, &#x27;cronjob&#x27;: False, &#x27;numthreads&#x27;: None, &#x27;quiet&#x27;: False, &#x27;interfaces&#x27;: None, &#x27;import_models&#x27;: False, &#x27;timeout&#x27;: 10, &#x27;plain&#x27;: False, &#x27;nobanner&#x27;: False}&gt;</div></td></tr><tr><td style="font-weight:bold;vertical-align:top">db_sessions</td><td valign="top">:</td><td><div>set([])</div></td></tr><tr><td style="font-weight:bold;vertical-align:top">debugging</td><td valign="top">:</td><td><div>False</div></td></tr><tr><td style="font-weight:bold;vertical-align:top">gluon_parent</td><td valign="top">:</td><td><div>/home/akshita/IIIT/II Year/III semester/SSAD/web2py</div></td></tr><tr><td style="font-weight:bold;vertical-align:top">http_accept</td><td valign="top">:</td><td><div>text/html,application/xhtml+xml,application/xml;q=0.9,*/*;q=0.8</div></td></tr><tr><td style="font-weight:bold;vertical-align:top">http_accept_encoding</td><td valign="top">:</td><td><div>gzip, deflate</div></td></tr><tr><td style="font-weight:bold;vertical-align:top">http_accept_language</td><td valign="top">:</td><td><div>en-US,en;q=0.5</div></td></tr><tr><td style="font-weight:bold;vertical-align:top">http_connection</td><td valign="top">:</td><td><div>keep-alive</div></td></tr><tr><td style="font-weight:bold;vertical-align:top">http_cookie</td><td valign="top">:</td><td><div>session_id_welcome=127.0.0.1-f0bcbe00-61a4-4249-a22b-826742ea1ada; session_id_admin=127.0.0.1-23e49fd4-a45e-4860-a32f-40990151b536; session_id_nouvelles_en_ligne=127.0.0.1-7e484384-59ee-4d15-ac06-3487b6021fe5; session_id_lmsauto=127.0.0.1-7aa24e3c-989c-4869-a99e-89fd038347d9</div></td></tr><tr><td style="font-weight:bold;vertical-align:top">http_host</td><td valign="top">:</td><td><div>127.0.0.1:8000</div></td></tr><tr><td style="font-weight:bold;vertical-align:top">http_referer</td><td valign="top">:</td><td><div>http://127.0.0.1:8000/NOUVELLES_EN_LIGNE/default/user/login?_next=/NOUVELLES_EN_LIGNE/default/mynews</div></td></tr><tr><td style="font-weight:bold;vertical-align:top">http_user_agent</td><td valign="top">:</td><td><div>Mozilla/5.0 (X11; Ubuntu; Linux x86_64; rv:23.0) Gecko/20100101 Firefox/23.0</div></td></tr><tr><td style="font-weight:bold;vertical-align:top">is_jython</td><td valign="top">:</td><td><div>False</div></td></tr><tr><td style="font-weight:bold;vertical-align:top">is_pypy</td><td valign="top">:</td><td><div>False</div></td></tr><tr><td style="font-weight:bold;vertical-align:top">local_hosts</td><td valign="top">:</td><td><div><table><tr><td><div>::1</div></td></tr><tr><td><div>127.0.1.1</div></td></tr><tr><td><div>::ffff:127.0.0.1</div></td></tr><tr><td><div>127.0.0.1</div></td></tr><tr><td><div>ubuntu</div></td></tr></table></div></td></tr><tr><td style="font-weight:bold;vertical-align:top">path_info</td><td valign="top">:</td><td><div>/NOUVELLES_EN_LIGNE/default/home.html</div></td></tr><tr><td style="font-weight:bold;vertical-align:top">query_string</td><td valign="top">:</td><td><div></div></td></tr><tr><td style="font-weight:bold;vertical-align:top">remote_addr</td><td valign="top">:</td><td><div>127.0.0.1</div></td></tr><tr><td style="font-weight:bold;vertical-align:top">remote_port</td><td valign="top">:</td><td><div>46367</div></td></tr><tr><td style="font-weight:bold;vertical-align:top">request_method</td><td valign="top">:</td><td><div>GET</div></td></tr><tr><td style="font-weight:bold;vertical-align:top">request_uri</td><td valign="top">:</td><td><div>/NOUVELLES_EN_LIGNE/default/home.html</div></td></tr><tr><td style="font-weight:bold;vertical-align:top">script_name</td><td valign="top">:</td><td><div></div></td></tr><tr><td style="font-weight:bold;vertical-align:top">server_name</td><td valign="top">:</td><td><div>ubuntu</div></td></tr><tr><td style="font-weight:bold;vertical-align:top">server_port</td><td valign="top">:</td><td><div>8000</div></td></tr><tr><td style="font-weight:bold;vertical-align:top">server_protocol</td><td valign="top">:</td><td><div>HTTP/1.1</div></td></tr><tr><td style="font-weight:bold;vertical-align:top">server_software</td><td valign="top">:</td><td><div>Rocket 1.2.6</div></td></tr><tr><td style="font-weight:bold;vertical-align:top">web2py_path</td><td valign="top">:</td><td><div>/home/akshita/IIIT/II Year/III semester/SSAD/web2py</div></td></tr><tr><td style="font-weight:bold;vertical-align:top">web2py_version</td><td valign="top">:</td><td><div>2.5.1-stable+timestamp.2013.06.06.15.39.19</div></td></tr><tr><td style="font-weight:bold;vertical-align:top">wsgi_errors</td><td valign="top">:</td><td><div>&lt;open file &#x27;&lt;stderr&gt;&#x27;, mode &#x27;w&#x27; at 0x7fc445ace270&gt;</div></td></tr><tr><td style="font-weight:bold;vertical-align:top">wsgi_file_wrapper</td><td valign="top">:</td><td><div>&lt;class wsgiref.util.FileWrapper at 0x2eb4a78&gt;</div></td></tr><tr><td style="font-weight:bold;vertical-align:top">wsgi_input</td><td valign="top">:</td><td><div>&lt;socket._fileobject object at 0x7fc42c299cd0&gt;</div></td></tr><tr><td style="font-weight:bold;vertical-align:top">wsgi_multiprocess</td><td valign="top">:</td><td><div>False</div></td></tr><tr><td style="font-weight:bold;vertical-align:top">wsgi_multithread</td><td valign="top">:</td><td><div>True</div></td></tr><tr><td style="font-weight:bold;vertical-align:top">wsgi_run_once</td><td valign="top">:</td><td><div>False</div></td></tr><tr><td style="font-weight:bold;vertical-align:top">wsgi_url_scheme</td><td valign="top">:</td><td><div>http</div></td></tr><tr><td style="font-weight:bold;vertical-align:top">wsgi_version</td><td valign="top">:</td><td><div><table><tr><td><div>1</div></td></tr><tr><td><div>0</div></td></tr></table></div></td></tr></table></div></td></tr><tr><td style="font-weight:bold;vertical-align:top">extension</td><td valign="top">:</td><td><div>html</div></td></tr><tr><td style="font-weight:bold;vertical-align:top">folder</td><td valign="top">:</td><td><div>/home/akshita/IIIT/II Year/III semester/SSAD/web2py/applications/NOUVELLES_EN_LIGNE/</div></td></tr><tr><td style="font-weight:bold;vertical-align:top">function</td><td valign="top">:</td><td><div>home</div></td></tr><tr><td style="font-weight:bold;vertical-align:top">get_vars</td><td valign="top">:</td><td><div><table></table></div></td></tr><tr><td style="font-weight:bold;vertical-align:top">global_settings</td><td valign="top">:</td><td><div><table><tr><td style="font-weight:bold;vertical-align:top">app_folders</td><td valign="top">:</td><td><div>set([&#x27;/home/akshita/IIIT/II Year/III semester/SSAD/web2py/applications/admin/&#x27;, &#x27;/home/akshita/IIIT/II Year/III semester/SSAD/web2py/applications/welcome/&#x27;, &#x27;/home/akshita/IIIT/II Year/III semester/SSAD/web2py/applications/lmsauto/&#x27;, &#x27;/home/akshita/IIIT/II Year/III semester/SSAD/web2py/applications/NOUVELLES_EN_LIGNE/&#x27;])</div></td></tr><tr><td style="font-weight:bold;vertical-align:top">applications_parent</td><td valign="top">:</td><td><div>/home/akshita/IIIT/II Year/III semester/SSAD/web2py</div></td></tr><tr><td style="font-weight:bold;vertical-align:top">cmd_args</td><td valign="top">:</td><td><div><table></table></div></td></tr><tr><td style="font-weight:bold;vertical-align:top">cmd_options</td><td valign="top">:</td><td><div>&lt;Values at 0x2f9be60: {&#x27;verbose&#x27;: False, &#x27;ip&#x27;: &#x27;127.0.0.1&#x27;, &#x27;with_scheduler&#x27;: False, &#x27;ips&#x27;: [&#x27;127.0.1.1&#x27;], &#x27;shutdown_timeout&#x27;: 5, &#x27;taskbar&#x27;: False, &#x27;with_coverage&#x27;: False, &#x27;port&#x27;: 8000, &#x27;maxthreads&#x27;: None, &#x27;softcron&#x27;: False, &#x27;server_name&#x27;: &#x27;ubuntu&#x27;, &#x27;bpython&#x27;: False, &#x27;nogui&#x27;: False, &#x27;pid_filename&#x27;: &#x27;httpserver.pid&#x27;, &#x27;extcron&#x27;: False, &#x27;runcron&#x27;: False, &#x27;run_system_tests&#x27;: False, &#x27;test&#x27;: None, &#x27;folder&#x27;: &#x27;/home/akshita/IIIT/II Year/III semester/SSAD/web2py&#x27;, &#x27;config&#x27;: &#x27;&#x27;, &#x27;minthreads&#x27;: None, &#x27;winservice&#x27;: &#x27;&#x27;, &#x27;shell&#x27;: None, &#x27;run&#x27;: &#x27;&#x27;, &#x27;log_filename&#x27;: &#x27;httpserver.log&#x27;, &#x27;debuglevel&#x27;: 30, &#x27;args&#x27;: [&#x27;&#x27;], &#x27;socket_timeout&#x27;: 5, &#x27;ssl_ca_certificate&#x27;: None, &#x27;scheduler&#x27;: None, &#x27;profiler_filename&#x27;: None, &#x27;ssl_private_key&#x27;: &#x27;&#x27;, &#x27;scheduler_groups&#x27;: None, &#x27;password&#x27;: &#x27;j&#x27;, &#x27;request_queue_size&#x27;: 5, &#x27;ssl_certificate&#x27;: &#x27;&#x27;, &#x27;cronjob&#x27;: False, &#x27;numthreads&#x27;: None, &#x27;quiet&#x27;: False, &#x27;interfaces&#x27;: None, &#x27;import_models&#x27;: False, &#x27;timeout&#x27;: 10, &#x27;plain&#x27;: False, &#x27;nobanner&#x27;: False}&gt;</div></td></tr><tr><td style="font-weight:bold;vertical-align:top">db_sessions</td><td valign="top">:</td><td><div>set([])</div></td></tr><tr><td style="font-weight:bold;vertical-align:top">debugging</td><td valign="top">:</td><td><div>False</div></td></tr><tr><td style="font-weight:bold;vertical-align:top">gluon_parent</td><td valign="top">:</td><td><div>/home/akshita/IIIT/II Year/III semester/SSAD/web2py</div></td></tr><tr><td style="font-weight:bold;vertical-align:top">is_jython</td><td valign="top">:</td><td><div>False</div></td></tr><tr><td style="font-weight:bold;vertical-align:top">is_pypy</td><td valign="top">:</td><td><div>False</div></td></tr><tr><td style="font-weight:bold;vertical-align:top">local_hosts</td><td valign="top">:</td><td><div><table><tr><td><div>::1</div></td></tr><tr><td><div>127.0.1.1</div></td></tr><tr><td><div>::ffff:127.0.0.1</div></td></tr><tr><td><div>127.0.0.1</div></td></tr><tr><td><div>ubuntu</div></td></tr></table></div></td></tr><tr><td style="font-weight:bold;vertical-align:top">web2py_version</td><td valign="top">:</td><td><div>2.5.1-stable+timestamp.2013.06.06.15.39.19</div></td></tr></table></div></td></tr><tr><td style="font-weight:bold;vertical-align:top">is_https</td><td valign="top">:</td><td><div>False</div></td></tr><tr><td style="font-weight:bold;vertical-align:top">is_local</td><td valign="top">:</td><td><div>True</div></td></tr><tr><td style="font-weight:bold;vertical-align:top">is_restful</td><td valign="top">:</td><td><div>False</div></td></tr><tr><td style="font-weight:bold;vertical-align:top">now</td><td valign="top">:</td><td><div>datetime.datetime(2013, 8, 30, 4, 16, 37, 888613)</div></td></tr><tr><td style="font-weight:bold;vertical-align:top">post_vars</td><td valign="top">:</td><td><div><table></table></div></td></tr><tr><td style="font-weight:bold;vertical-align:top">raw_args</td><td valign="top">:</td><td><div></div></td></tr><tr><td style="font-weight:bold;vertical-align:top">raw_extension</td><td valign="top">:</td><td><div>html</div></td></tr><tr><td style="font-weight:bold;vertical-align:top">url</td><td valign="top">:</td><td><div>/NOUVELLES_EN_LIGNE/default/home.html</div></td></tr><tr><td style="font-weight:bold;vertical-align:top">utcnow</td><td valign="top">:</td><td><div>datetime.datetime(2013, 8, 29, 22, 46, 37, 888638)</div></td></tr><tr><td style="font-weight:bold;vertical-align:top">uuid</td><td valign="top">:</td><td><div>NOUVELLES_EN_LIGNE/127.0.0.1.2013-08-30.04-16-37.7e540e6a-eb99-4adb-879a-6dce6fb8d5e3</div></td></tr><tr><td style="font-weight:bold;vertical-align:top">vars</td><td valign="top">:</td><td><div><table></table></div></td></tr><tr><td style="font-weight:bold;vertical-align:top">wsgi</td><td valign="top">:</td><td><div><table><tr><td style="font-weight:bold;vertical-align:top">environ</td><td valign="top">:</td><td><div><table><tr><td style="font-weight:bold;vertical-align:top">HTTP_ACCEPT</td><td valign="top">:</td><td><div>text/html,application/xhtml+xml,application/xml;q=0.9,*/*;q=0.8</div></td></tr><tr><td style="font-weight:bold;vertical-align:top">HTTP_ACCEPT_ENCODING</td><td valign="top">:</td><td><div>gzip, deflate</div></td></tr><tr><td style="font-weight:bold;vertical-align:top">HTTP_ACCEPT_LANGUAGE</td><td valign="top">:</td><td><div>en-US,en;q=0.5</div></td></tr><tr><td style="font-weight:bold;vertical-align:top">HTTP_CONNECTION</td><td valign="top">:</td><td><div>keep-alive</div></td></tr><tr><td style="font-weight:bold;vertical-align:top">HTTP_COOKIE</td><td valign="top">:</td><td><div>session_id_welcome=127.0.0.1-f0bcbe00-61a4-4249-a22b-826742ea1ada; session_id_admin=127.0.0.1-23e49fd4-a45e-4860-a32f-40990151b536; session_id_nouvelles_en_ligne=127.0.0.1-7e484384-59ee-4d15-ac06-3487b6021fe5; session_id_lmsauto=127.0.0.1-7aa24e3c-989c-4869-a99e-89fd038347d9</div></td></tr><tr><td style="font-weight:bold;vertical-align:top">HTTP_HOST</td><td valign="top">:</td><td><div>127.0.0.1:8000</div></td></tr><tr><td style="font-weight:bold;vertical-align:top">HTTP_REFERER</td><td valign="top">:</td><td><div>http://127.0.0.1:8000/NOUVELLES_EN_LIGNE/default/user/login?_next=/NOUVELLES_EN_LIGNE/default/mynews</div></td></tr><tr><td style="font-weight:bold;vertical-align:top">HTTP_USER_AGENT</td><td valign="top">:</td><td><div>Mozilla/5.0 (X11; Ubuntu; Linux x86_64; rv:23.0) Gecko/20100101 Firefox/23.0</div></td></tr><tr><td style="font-weight:bold;vertical-align:top">PATH_INFO</td><td valign="top">:</td><td><div>/NOUVELLES_EN_LIGNE/default/home.html</div></td></tr><tr><td style="font-weight:bold;vertical-align:top">QUERY_STRING</td><td valign="top">:</td><td><div></div></td></tr><tr><td style="font-weight:bold;vertical-align:top">REMOTE_ADDR</td><td valign="top">:</td><td><div>127.0.0.1</div></td></tr><tr><td style="font-weight:bold;vertical-align:top">REMOTE_PORT</td><td valign="top">:</td><td><div>46367</div></td></tr><tr><td style="font-weight:bold;vertical-align:top">REQUEST_METHOD</td><td valign="top">:</td><td><div>GET</div></td></tr><tr><td style="font-weight:bold;vertical-align:top">REQUEST_URI</td><td valign="top">:</td><td><div>/NOUVELLES_EN_LIGNE/default/home.html</div></td></tr><tr><td style="font-weight:bold;vertical-align:top">SCRIPT_NAME</td><td valign="top">:</td><td><div></div></td></tr><tr><td style="font-weight:bold;vertical-align:top">SERVER_NAME</td><td valign="top">:</td><td><div>ubuntu</div></td></tr><tr><td style="font-weight:bold;vertical-align:top">SERVER_PORT</td><td valign="top">:</td><td><div>8000</div></td></tr><tr><td style="font-weight:bold;vertical-align:top">SERVER_PROTOCOL</td><td valign="top">:</td><td><div>HTTP/1.1</div></td></tr><tr><td style="font-weight:bold;vertical-align:top">SERVER_SOFTWARE</td><td valign="top">:</td><td><div>Rocket 1.2.6</div></td></tr><tr><td style="font-weight:bold;vertical-align:top">wsgi.errors</td><td valign="top">:</td><td><div>&lt;open file &#x27;&lt;stderr&gt;&#x27;, mode &#x27;w&#x27; at 0x7fc445ace270&gt;</div></td></tr><tr><td style="font-weight:bold;vertical-align:top">wsgi.file_wrapper</td><td valign="top">:</td><td><div>&lt;class wsgiref.util.FileWrapper at 0x2eb4a78&gt;</div></td></tr><tr><td style="font-weight:bold;vertical-align:top">wsgi.input</td><td valign="top">:</td><td><div>&lt;cStringIO.StringO object at 0x7fc42c2a4bc8&gt;</div></td></tr><tr><td style="font-weight:bold;vertical-align:top">wsgi.multiprocess</td><td valign="top">:</td><td><div>False</div></td></tr><tr><td style="font-weight:bold;vertical-align:top">wsgi.multithread</td><td valign="top">:</td><td><div>True</div></td></tr><tr><td style="font-weight:bold;vertical-align:top">wsgi.run_once</td><td valign="top">:</td><td><div>False</div></td></tr><tr><td style="font-weight:bold;vertical-align:top">wsgi.url_scheme</td><td valign="top">:</td><td><div>http</div></td></tr><tr><td style="font-weight:bold;vertical-align:top">wsgi.version</td><td valign="top">:</td><td><div>1</div></td></tr></table></div></td></tr></table></div></td></tr></table></div>'
tRp58
sS'frames'
p59
(lp60
(dp61
S'file'
p62
S'/home/akshita/IIIT/II Year/III semester/SSAD/web2py/gluon/restricted.py'
p63
sS'dump'
p64
(dp65
S'environment'
p66
S"{'A': <class 'gluon.html.A'>, 'ANY_OF': <class 'gluon.validators.ANY_OF'>, 'Auth': <class 'gluon.tools.Auth'>, 'B': <class 'gluon.html.B'>, 'BEAUTIFY': <class 'gluon.html.BEAUTIFY'>, 'BODY': <class 'gluon.html.BODY'>, 'BR': <class 'gluon.html.BR'>, 'BUTTON': <class 'gluon.html.BUTTON'>, 'CAT': <class 'gluon.html.CAT'>, 'CENTER': <class 'gluon.html.CENTER'>, ...}"
p67
sS'ccode'
p68
S'<code object <module> at 0x7fc430218430, file "/...VELLES_EN_LIGNE/controllers/default.py", line 13>'
p69
ssS'lnum'
p70
I212
sS'lines'
p71
(dp72
I207
S'    try:'
p73
sI208
S'        if isinstance(code, types.CodeType):'
p74
sI209
S'            ccode = code'
p75
sI210
S'        else:'
p76
sI211
S'            ccode = compile2(code, layer)'
p77
sI212
S'        exec ccode in environment'
p78
sI213
S'    except HTTP:'
p79
sI214
S'        raise'
p80
sI215
S'    except RestrictedError:'
p81
sI216
S'        # do not encapsulate (obfuscate) the original RestrictedError'
p82
ssS'call'
p83
S"(code='# -*- coding: utf-8 -*-\\n# this file is released ... locals()\\n\\nresponse._vars=response._caller(home)\\n', environment={'A': <class 'gluon.html.A'>, 'ANY_OF': <class 'gluon.validators.ANY_OF'>, 'Auth': <class 'gluon.tools.Auth'>, 'B': <class 'gluon.html.B'>, 'BEAUTIFY': <class 'gluon.html.BEAUTIFY'>, 'BODY': <class 'gluon.html.BODY'>, 'BR': <class 'gluon.html.BR'>, 'BUTTON': <class 'gluon.html.BUTTON'>, 'CAT': <class 'gluon.html.CAT'>, 'CENTER': <class 'gluon.html.CENTER'>, ...}, layer='/home/akshita/IIIT/II Year/III semester/SSAD/web...cations/NOUVELLES_EN_LIGNE/controllers/default.py')"
p84
sS'func'
p85
S'restricted'
p86
sa(dp87
g62
S'/home/akshita/IIIT/II Year/III semester/SSAD/web2py/applications/NOUVELLES_EN_LIGNE/controllers/default.py'
p88
sg64
(dp89
sg70
I261
sg71
(dp90
I256
S'\t\tredirect(URL(r=request,f=home))'
p91
sI257
S'\telif form.errors:'
p92
sI258
S'\t \tresponse.flash="errors"'
p93
sI259
S'\treturn locals()'
p94
sI250
S'\tid1=int(request.args(0))'
p95
sI251
S'#a=db((db.news.id==id1)&(db.comments.new_id==db.news.id)).select(db.comments.ALL)[0]'
p96
sI252
S'\tdb.comments.new_id.default=id1'
p97
sI253
S'\tdb.comments.new_id.writable=db.comments.new_id.readable=False'
p98
sI254
S'\tform=SQLFORM(db.comments)'
p99
sI255
S'\tif form.accepts(request.vars,session):'
p100
ssg83
S'()'
p101
sg85
S'<module>'
p102
sa(dp103
g62
S'/home/akshita/IIIT/II Year/III semester/SSAD/web2py/gluon/globals.py'
p104
sg64
(dp105
S'self'
p106
S'undefined'
p107
sS'f'
S'<function home>'
p108
ssg70
I194
sg71
(dp109
I192
S"        self.delimiters = ('{{', '}}')"
p110
sI193
S'        self._vars = None'
p111
sI194
S'        self._caller = lambda f: f()'
p112
sI195
S'        self._view_environment = None'
p113
sI196
S'        self._custom_commit = None'
p114
sI197
S'        self._custom_rollback = None'
p115
sI198
S''
sI189
S'        self.menu = []             # used by the default view layout'
p116
sI190
S'        self.files = []            # used by web2py_ajax.html'
p117
sI191
S'        self.generic_patterns = []  # patterns to allow generic views'
p118
ssg83
S'(f=<function home>)'
p119
sg85
S'<lambda>'
p120
sa(dp121
g62
S'/home/akshita/IIIT/II Year/III semester/SSAD/web2py/applications/NOUVELLES_EN_LIGNE/controllers/default.py'
p122
sg64
(dp123
S'c'
g107
sS'db.auth_user.ALL'
p124
S'<gluon.dal.SQLALL object>'
p125
sS'id2'
p126
S'1L'
p127
sS'db.news.posted_by'
p128
S'<gluon.dal.Field object>'
p129
sS'db.news'
p130
S'<Table news (id,Category,Heading,Url,Description,posted_by,posted_on,likes)>'
p131
sS').select'
p132
g107
sS'db.auth_user'
p133
S'<Table auth_user (id,first_name,last_name,email,...eset_password_key,registration_id,likes,news_id)>'
p134
sS'db.auth_user.id'
p135
S'<gluon.dal.Field object>'
p136
sS'global db'
p137
S'<DAL uri="sqlite://storage.sqlite">'
p138
ssg70
I91
sg71
(dp139
I86
S'#for k in m1:'
p140
sI87
S'#\t\tt.append(k.name)'
p141
sI88
S'\tfor k in a:'
p142
sI89
S'\t\tx={}'
p143
sI90
S"\t\tid2 = k['posted_by']"
p144
sI91
S'\t\tc = db((db.news.posted_by == id2) & (db.auth_user.id == db.news.posted_by)).select(db.auth_user.ALL)[0]'
p145
sI92
S"\t\tid1=k['Category']"
p146
sI93
S'\t\tb=db((db.news.Category == id1) & (db.category.id == db.news.Category)).select(db.category.ALL)[0]'
p147
sI94
S"\t\tx['Head']=k['Heading']"
p148
sI95
S"\t\tx['Cat']=b['name']"
p149
ssg83
S'()'
p150
sg85
S'home'
p151
sa(dp152
g62
S'/home/akshita/IIIT/II Year/III semester/SSAD/web2py/gluon/dal.py'
p153
sg64
(dp154
S'self.query'
p155
S'<Query ((news.posted_by = 1) AND (auth_user.id = news.posted_by))>'
p156
sS'adapter.select'
p157
S'<bound method SQLiteAdapter.select of <gluon.dal.SQLiteAdapter object>>'
p158
sS'fields'
p159
S'[<gluon.dal.Field object>, <gluon.dal.Field object>, <gluon.dal.Field object>, <gluon.dal.Field object>, <gluon.dal.Field object>, <gluon.dal.Field object>, <gluon.dal.Field object>, <gluon.dal.Field object>, <gluon.dal.Field object>, <gluon.dal.Field object>]'
p160
sS'adapter'
p161
S'<gluon.dal.SQLiteAdapter object>'
p162
sS'attributes'
p163
g45
sS'self'
p164
S'<Set ((news.posted_by = 1) AND (auth_user.id = news.posted_by))>'
p165
ssg70
I9958
sg71
(dp166
I9953
S"                                    attributes.get('join',None),"
p167
sI9954
S"                                    attributes.get('left',None),"
p168
sI9955
S"                                    attributes.get('orderby',None),"
p169
sI9956
S"                                    attributes.get('groupby',None))"
p170
sI9957
S'        fields = adapter.expand_all(fields, tablenames)'
p171
sI9958
S'        return adapter.select(self.query,fields,attributes)'
p172
sI9959
S''
sI9960
S'    def nested_select(self,*fields,**attributes):'
p173
sI9961
S'        return Expression(self.db,self._select(*fields,**attributes))'
p174
sI9962
S''
ssg83
S'(self=<Set ((news.posted_by = 1) AND (auth_user.id = news.posted_by))>, *fields=[<gluon.dal.Field object>, <gluon.dal.Field object>, <gluon.dal.Field object>, <gluon.dal.Field object>, <gluon.dal.Field object>, <gluon.dal.Field object>, <gluon.dal.Field object>, <gluon.dal.Field object>, <gluon.dal.Field object>, <gluon.dal.Field object>], **attributes={})'
p175
sg85
S'select'
p176
sa(dp177
g62
S'/home/akshita/IIIT/II Year/III semester/SSAD/web2py/gluon/dal.py'
p178
sg64
(dp179
S'fields'
p180
S'[<gluon.dal.Field object>, <gluon.dal.Field object>, <gluon.dal.Field object>, <gluon.dal.Field object>, <gluon.dal.Field object>, <gluon.dal.Field object>, <gluon.dal.Field object>, <gluon.dal.Field object>, <gluon.dal.Field object>, <gluon.dal.Field object>]'
p181
sS'self'
p182
S'<gluon.dal.SQLiteAdapter object>'
p183
sS').select'
p184
S'<bound method SQLiteAdapter.select of <gluon.dal.SQLiteAdapter object>>'
p185
sS'attributes'
p186
g45
sS'global SQLiteAdapter'
p187
S"<class 'gluon.dal.SQLiteAdapter'>"
p188
sS'query'
p189
S'<Query ((news.posted_by = 1) AND (auth_user.id = news.posted_by))>'
p190
sS'builtinsuper'
p191
S"<type 'super'>"
p192
ssg70
I2245
sg71
(dp193
I2240
S'        Note that the entire database, rather than one record, is locked'
p194
sI2241
S'        (it will be locked eventually anyway by the following UPDATE).'
p195
sI2242
S'        """'
p196
sI2243
S"        if attributes.get('for_update', False) and not 'cache' in attributes:"
p197
sI2244
S"            self.execute('BEGIN IMMEDIATE TRANSACTION;')"
p198
sI2245
S'        return super(SQLiteAdapter, self).select(query, fields, attributes)'
p199
sI2246
S''
sI2247
S'class SpatiaLiteAdapter(SQLiteAdapter):'
p200
sI2248
S"    drivers = ('sqlite3','sqlite2')"
p201
sI2249
S''
ssg83
S'(self=<gluon.dal.SQLiteAdapter object>, query=<Query ((news.posted_by = 1) AND (auth_user.id = news.posted_by))>, fields=[<gluon.dal.Field object>, <gluon.dal.Field object>, <gluon.dal.Field object>, <gluon.dal.Field object>, <gluon.dal.Field object>, <gluon.dal.Field object>, <gluon.dal.Field object>, <gluon.dal.Field object>, <gluon.dal.Field object>, <gluon.dal.Field object>], attributes={})'
p202
sg85
g176
sa(dp203
g62
S'/home/akshita/IIIT/II Year/III semester/SSAD/web2py/gluon/dal.py'
p204
sg64
(dp205
S'fields'
p206
S'[<gluon.dal.Field object>, <gluon.dal.Field object>, <gluon.dal.Field object>, <gluon.dal.Field object>, <gluon.dal.Field object>, <gluon.dal.Field object>, <gluon.dal.Field object>, <gluon.dal.Field object>, <gluon.dal.Field object>, <gluon.dal.Field object>]'
p207
sS'self'
p208
S'<gluon.dal.SQLiteAdapter object>'
p209
sS'attributes'
p210
g45
sS'self._select_aux'
p211
S'<bound method SQLiteAdapter._select_aux of <gluon.dal.SQLiteAdapter object>>'
p212
sS'sql'
p213
S"'SELECT  auth_user.id, auth_user.first_name, auth...ted_by = 1) AND (auth_user.id = news.posted_by));'"
p214
ssg70
I1704
sg71
(dp215
I1699
S'            return cache_model('
p216
sI1700
S'                key,'
p217
sI1701
S'                lambda self=self,args=args:self._select_aux(*args),'
p218
sI1702
S'                time_expire)'
p219
sI1703
S'        else:'
p220
sI1704
S'            return self._select_aux(sql,fields,attributes)'
p221
sI1705
S''
sI1706
S'    def _count(self, query, distinct=None):'
p222
sI1707
S'        tablenames = self.tables(query)'
p223
sI1708
S'        if query:'
p224
ssg83
S'(self=<gluon.dal.SQLiteAdapter object>, query=<Query ((news.posted_by = 1) AND (auth_user.id = news.posted_by))>, fields=[<gluon.dal.Field object>, <gluon.dal.Field object>, <gluon.dal.Field object>, <gluon.dal.Field object>, <gluon.dal.Field object>, <gluon.dal.Field object>, <gluon.dal.Field object>, <gluon.dal.Field object>, <gluon.dal.Field object>, <gluon.dal.Field object>], attributes={})'
p225
sg85
g176
sa(dp226
g62
S'/home/akshita/IIIT/II Year/III semester/SSAD/web2py/gluon/dal.py'
p227
sg64
(dp228
S'rows'
p229
S"[(1, u'Akshita', u'Negi', u'akshu0494@gmail.com', u'pbkdf2(1000,20,sha512)$81170183f0acd773$0c0734a0d09b283d0b687e7b2de984bbb45d8b41', u'', u'', u'', 0, None), (1, u'Akshita', u'Negi', u'akshu0494@gmail.com', u'pbkdf2(1000,20,sha512)$81170183f0acd773$0c0734a0d09b283d0b687e7b2de984bbb45d8b41', u'', u'', u'', 0, None), (1, u'Akshita', u'Negi', u'akshu0494@gmail.com', u'pbkdf2(1000,20,sha512)$81170183f0acd773$0c0734a0d09b283d0b687e7b2de984bbb45d8b41', u'', u'', u'', 0, None), (1, u'Akshita', u'Negi', u'akshu0494@gmail.com', u'pbkdf2(1000,20,sha512)$81170183f0acd773$0c0734a0d09b283d0b687e7b2de984bbb45d8b41', u'', u'', u'', 0, None), (1, u'Akshita', u'Negi', u'akshu0494@gmail.com', u'pbkdf2(1000,20,sha512)$81170183f0acd773$0c0734a0d09b283d0b687e7b2de984bbb45d8b41', u'', u'', u'', 0, None), (1, u'Akshita', u'Negi', u'akshu0494@gmail.com', u'pbkdf2(1000,20,sha512)$81170183f0acd773$0c0734a0d09b283d0b687e7b2de984bbb45d8b41', u'', u'', u'', 0, None)]"
p230
sS'fields'
p231
S'[<gluon.dal.Field object>, <gluon.dal.Field object>, <gluon.dal.Field object>, <gluon.dal.Field object>, <gluon.dal.Field object>, <gluon.dal.Field object>, <gluon.dal.Field object>, <gluon.dal.Field object>, <gluon.dal.Field object>, <gluon.dal.Field object>]'
p232
sS'self'
p233
S'<gluon.dal.SQLiteAdapter object>'
p234
sS'cacheable'
p235
S'False'
p236
sS'self._colnames'
p237
S"['auth_user.id', 'auth_user.first_name', 'auth_user.last_name', 'auth_user.email', 'auth_user.password', 'auth_user.registration_key', 'auth_user.reset_password_key', 'auth_user.registration_id', 'auth_user.likes', 'auth_user.news_id']"
p238
sS'processor'
p239
S'<bound method SQLiteAdapter.parse of <gluon.dal.SQLiteAdapter object>>'
p240
ssg70
I1685
sg71
(dp241
I1680
S'            rows = list(rows)'
p242
sI1681
S"        limitby = args_get('limitby', None) or (0,)"
p243
sI1682
S'        rows = self.rowslice(rows,limitby[0],None)'
p244
sI1683
S"        processor = args_get('processor',self.parse)"
p245
sI1684
S"        cacheable = args_get('cacheable',False)"
p246
sI1685
S'        return processor(rows,fields,self._colnames,cacheable=cacheable)'
p247
sI1686
S''
sI1687
S'    def select(self, query, fields, attributes):'
p248
sI1688
S'        """'
p249
sI1689
S'        Always returns a Rows object, possibly empty.'
p250
ssg83
S"(self=<gluon.dal.SQLiteAdapter object>, sql='SELECT  auth_user.id, auth_user.first_name, auth...ted_by = 1) AND (auth_user.id = news.posted_by));', fields=[<gluon.dal.Field object>, <gluon.dal.Field object>, <gluon.dal.Field object>, <gluon.dal.Field object>, <gluon.dal.Field object>, <gluon.dal.Field object>, <gluon.dal.Field object>, <gluon.dal.Field object>, <gluon.dal.Field object>, <gluon.dal.Field object>], attributes={})"
p251
sg85
S'_select_aux'
p252
sa(dp253
g62
S'/home/akshita/IIIT/II Year/III semester/SSAD/web2py/gluon/dal.py'
p254
sg64
(dp255
S'blob_decode'
p256
S'True'
p257
sS'self'
p258
S'<gluon.dal.SQLiteAdapter object>'
p259
sS'ft'
p260
S"'list:integer'"
p261
sS'value'
p262
S'0'
sS'self.parse_value'
p263
S'<bound method SQLiteAdapter.parse_value of <gluon.dal.SQLiteAdapter object>>'
p264
ssg70
I2055
sg71
(dp265
I2050
S'                        colset = new_row[tablename]'
p266
sI2051
S'                    else:'
p267
sI2052
S'                        colset = new_row[tablename] = Row()'
p268
sI2053
S'                        if tablename not in virtualtables:'
p269
sI2054
S'                            virtualtables.append(tablename)'
p270
sI2055
S'                    value = self.parse_value(value,ft,blob_decode)'
p271
sI2056
S'                    if field.filter_out:'
p272
sI2057
S'                        value = field.filter_out(value)'
p273
sI2058
S'                    colset[fieldname] = value'
p274
sI2059
S''
ssg83
S"(self=<gluon.dal.SQLiteAdapter object>, rows=[(1, u'Akshita', u'Negi', u'akshu0494@gmail.com', u'pbkdf2(1000,20,sha512)$81170183f0acd773$0c0734a0d09b283d0b687e7b2de984bbb45d8b41', u'', u'', u'', 0, None), (1, u'Akshita', u'Negi', u'akshu0494@gmail.com', u'pbkdf2(1000,20,sha512)$81170183f0acd773$0c0734a0d09b283d0b687e7b2de984bbb45d8b41', u'', u'', u'', 0, None), (1, u'Akshita', u'Negi', u'akshu0494@gmail.com', u'pbkdf2(1000,20,sha512)$81170183f0acd773$0c0734a0d09b283d0b687e7b2de984bbb45d8b41', u'', u'', u'', 0, None), (1, u'Akshita', u'Negi', u'akshu0494@gmail.com', u'pbkdf2(1000,20,sha512)$81170183f0acd773$0c0734a0d09b283d0b687e7b2de984bbb45d8b41', u'', u'', u'', 0, None), (1, u'Akshita', u'Negi', u'akshu0494@gmail.com', u'pbkdf2(1000,20,sha512)$81170183f0acd773$0c0734a0d09b283d0b687e7b2de984bbb45d8b41', u'', u'', u'', 0, None), (1, u'Akshita', u'Negi', u'akshu0494@gmail.com', u'pbkdf2(1000,20,sha512)$81170183f0acd773$0c0734a0d09b283d0b687e7b2de984bbb45d8b41', u'', u'', u'', 0, None)], fields=[<gluon.dal.Field object>, <gluon.dal.Field object>, <gluon.dal.Field object>, <gluon.dal.Field object>, <gluon.dal.Field object>, <gluon.dal.Field object>, <gluon.dal.Field object>, <gluon.dal.Field object>, <gluon.dal.Field object>, <gluon.dal.Field object>], colnames=['auth_user.id', 'auth_user.first_name', 'auth_user.last_name', 'auth_user.email', 'auth_user.password', 'auth_user.registration_key', 'auth_user.reset_password_key', 'auth_user.registration_id', 'auth_user.likes', 'auth_user.news_id'], blob_decode=True, cacheable=False)"
p275
sg85
S'parse'
p276
sa(dp277
g62
S'/home/akshita/IIIT/II Year/III semester/SSAD/web2py/gluon/dal.py'
p278
sg64
(dp279
S'field_type'
p280
S"'list:integer'"
p281
sS'self'
p282
S'<gluon.dal.SQLiteAdapter object>'
p283
sS'self.parsemap'
p284
S"{'bigint': <bound method SQLiteAdapter.parse_integer of <gluon.dal.SQLiteAdapter object>>, 'blob': <bound method SQLiteAdapter.parse_blob of <gluon.dal.SQLiteAdapter object>>, 'boolean': <bound method SQLiteAdapter.parse_boolean of <gluon.dal.SQLiteAdapter object>>, 'date': <bound method SQLiteAdapter.parse_date of <gluon.dal.SQLiteAdapter object>>, 'datetime': <bound method SQLiteAdapter.parse_datetime of <gluon.dal.SQLiteAdapter object>>, 'decimal': <bound method SQLiteAdapter.parse_decimal of <gluon.dal.SQLiteAdapter object>>, 'double': <bound method SQLiteAdapter.parse_double of <gluon.dal.SQLiteAdapter object>>, 'float': <bound method SQLiteAdapter.parse_double of <gluon.dal.SQLiteAdapter object>>, 'id': <bound method SQLiteAdapter.parse_id of <gluon.dal.SQLiteAdapter object>>, 'integer': <bound method SQLiteAdapter.parse_integer of <gluon.dal.SQLiteAdapter object>>, ...}"
p285
sS'value'
p286
S'0'
sS'key'
p287
S"'list:integer'"
p288
ssg70
I1903
sg71
(dp289
I1898
S'            return value'
p290
sI1899
S"        elif field_type == 'blob' and not blob_decode:"
p291
sI1900
S'            return value'
p292
sI1901
S'        else:'
p293
sI1902
S'            key = REGEX_TYPE.match(field_type).group(0)'
p294
sI1903
S'            return self.parsemap[key](value,field_type)'
p295
sI1904
S''
sI1905
S'    def parse_reference(self, value, field_type):'
p296
sI1906
S'        referee = field_type[10:].strip()'
p297
sI1907
S"        if not '.' in referee:"
p298
ssg83
S"(self=<gluon.dal.SQLiteAdapter object>, value=0, field_type='list:integer', blob_decode=True)"
p299
sg85
S'parse_value'
p300
sa(dp301
g62
S'/home/akshita/IIIT/II Year/III semester/SSAD/web2py/gluon/dal.py'
p302
sg64
(dp303
S'global bar_decode_integer'
p304
S'<function bar_decode_integer>'
p305
sS'value'
p306
S'0'
ssg70
I1970
sg71
(dp307
I1965
S'            value = decimal.Decimal(str(value))'
p308
sI1966
S'        return value'
p309
sI1967
S''
sI1968
S'    def parse_list_integers(self, value, field_type):'
p310
sI1969
S'        if not isinstance(self, NoSQLAdapter):'
p311
sI1970
S'            value = bar_decode_integer(value)'
p312
sI1971
S'        return value'
p313
sI1972
S''
sI1973
S'    def parse_list_references(self, value, field_type):'
p314
sI1974
S'        if not isinstance(self, NoSQLAdapter):'
p315
ssg83
S"(self=<gluon.dal.SQLiteAdapter object>, value=0, field_type='list:integer')"
p316
sg85
S'parse_list_integers'
p317
sa(dp318
g62
S'/home/akshita/IIIT/II Year/III semester/SSAD/web2py/gluon/dal.py'
p319
sg64
(dp320
S'builtinlong'
p321
S"<type 'long'>"
p322
sS'x'
g107
sS'value.split'
p323
g107
sS'value'
p324
S'0'
ssg70
I6839
sg71
(dp325
I6834
S"    return '|%s|' % '|'.join(bar_escape(item) for item in items if str(item).strip())"
p326
sI6835
S''
sI6836
S'def bar_decode_integer(value):'
p327
sI6837
S"    if not hasattr(value,'split') and hasattr(value,'read'):"
p328
sI6838
S'        value = value.read()'
p329
sI6839
S"    return [long(x) for x in value.split('|') if x.strip()]"
p330
sI6840
S''
sI6841
S'def bar_decode_string(value):'
p331
sI6842
S"    return [x.replace('||', '|') for x in"
p332
sI6843
S'            REGEX_UNPACK.split(value[1:-1]) if x.strip()]'
p333
ssg83
S'(value=0)'
p334
sg85
S'bar_decode_integer'
p335
sasS'pyver'
p336
S'Python 2.7.3: /usr/bin/python (prefix: /usr)'
p337
sS'session'
p338
g57
(S's\xf8\x01\x00\x00<div><table><tr><td style="font-weight:bold;vertical-align:top">auth</td><td valign="top">:</td><td><div>None</div></td></tr><tr><td style="font-weight:bold;vertical-align:top">flash</td><td valign="top">:</td><td><div></div></td></tr><tr><td style="font-weight:bold;vertical-align:top">last_orderby</td><td valign="top">:</td><td><div>None</div></td></tr><tr><td style="font-weight:bold;vertical-align:top">last_query</td><td valign="top">:</td><td><div>db.category.id&gt;0</div></td></tr></table></div>'
tRp339
sS'etype'
p340
S"<type 'exceptions.AttributeError'>"
p341
sS'date'
p342
S'Fri Aug 30 04:16:37 2013'
p343
sS'response'
p344
g57
(S's\x91-\x00\x00<div><table><tr><td style="font-weight:bold;vertical-align:top">body</td><td valign="top">:</td><td><div>&lt;cStringIO.StringO object at 0x7fc42c2a4848&gt;</div></td></tr><tr><td style="font-weight:bold;vertical-align:top">cookies</td><td valign="top">:</td><td><div><table><tr><td style="font-weight:bold;vertical-align:top">session_id_nouvelles_en_ligne</td><td valign="top">:</td><td><div>127.0.0.1-7e484384-59ee-4d15-ac06-3487b6021fe5<table><tr><td style="font-weight:bold;vertical-align:top">comment</td><td valign="top">:</td><td><div></div></td></tr><tr><td style="font-weight:bold;vertical-align:top">domain</td><td valign="top">:</td><td><div></div></td></tr><tr><td style="font-weight:bold;vertical-align:top">expires</td><td valign="top">:</td><td><div></div></td></tr><tr><td style="font-weight:bold;vertical-align:top">httponly</td><td valign="top">:</td><td><div></div></td></tr><tr><td style="font-weight:bold;vertical-align:top">max-age</td><td valign="top">:</td><td><div></div></td></tr><tr><td style="font-weight:bold;vertical-align:top">path</td><td valign="top">:</td><td><div>/</div></td></tr><tr><td style="font-weight:bold;vertical-align:top">secure</td><td valign="top">:</td><td><div></div></td></tr><tr><td style="font-weight:bold;vertical-align:top">version</td><td valign="top">:</td><td><div></div></td></tr></table></div></td></tr></table></div></td></tr><tr><td style="font-weight:bold;vertical-align:top">delimiters</td><td valign="top">:</td><td><div><table><tr><td><div>{{</div></td></tr><tr><td><div>}}</div></td></tr></table></div></td></tr><tr><td style="font-weight:bold;vertical-align:top">files</td><td valign="top">:</td><td><div><table></table></div></td></tr><tr><td style="font-weight:bold;vertical-align:top">flash</td><td valign="top">:</td><td><div></div></td></tr><tr><td style="font-weight:bold;vertical-align:top">generic_patterns</td><td valign="top">:</td><td><div><table><tr><td><div>*</div></td></tr></table></div></td></tr><tr><td style="font-weight:bold;vertical-align:top">google_analytics_id</td><td valign="top">:</td><td><div>None</div></td></tr><tr><td style="font-weight:bold;vertical-align:top">headers</td><td valign="top">:</td><td><div><table><tr><td style="font-weight:bold;vertical-align:top">X-Powered-By</td><td valign="top">:</td><td><div>web2py</div></td></tr></table></div></td></tr><tr><td style="font-weight:bold;vertical-align:top">logo</td><td valign="top">:</td><td><div><a class="brand" href="http://www.web2py.com/"><b>web<span>2</span>py</b>&trade;&nbsp;</a></div></td></tr><tr><td style="font-weight:bold;vertical-align:top">menu</td><td valign="top">:</td><td><div><table><tr><td><div><table><tr><td><div>Home</div></td></tr><tr><td><div>False</div></td></tr><tr><td><div>/NOUVELLES_EN_LIGNE/default/index</div></td></tr><tr><td><div><table></table></div></td></tr></table></div></td></tr><tr><td><div><table><tr><td><div><span class="highlighted">web2py</span></div></td></tr><tr><td><div>False</div></td></tr><tr><td><div>http://web2py.com</div></td></tr><tr><td><div><table><tr><td><div><table><tr><td><div>My Sites</div></td></tr><tr><td><div>False</div></td></tr><tr><td><div>/admin/default/site</div></td></tr></table></div></td></tr><tr><td><div><table><tr><td><div>This App</div></td></tr><tr><td><div>False</div></td></tr><tr><td><div>/admin/default/design/NOUVELLES_EN_LIGNE</div></td></tr><tr><td><div>[(&lt;lazyT &#x27;Controller&#x27;&gt;, False, &#x27;/admin/default/edit/NOUVELLES_EN_LIGNE/controllers/default.py&#x27;), (&lt;lazyT &#x27;View&#x27;&gt;, False, &#x27;/admin/default/edit/NOUVELLES_EN_LIGNE/views/default/home.html&#x27;), (&lt;lazyT &#x27;Layout&#x27;&gt;, False, &#x27;/admin/default/edit/NOUVELLES_EN_LIGNE/views/layout.html&#x27;), (&lt;lazyT &#x27;Stylesheet&#x27;&gt;, False, &#x27;/admin/default/edit/NOUVELLES_EN_LIGNE/static/css/web2py.css&#x27;), (&lt;lazyT &#x27;DB Model&#x27;&gt;, False, &#x27;/admin/default/edit/NOUVELLES_EN_LIGNE/models/db.py&#x27;), (&lt;lazyT &#x27;Menu Model&#x27;&gt;, False, &#x27;/admin/default/edit/NOUVELLES_EN_LIGNE/models/menu.py&#x27;), (&lt;lazyT &#x27;Database&#x27;&gt;, False, &#x27;/NOUVELLES_EN_LIGNE/appadmin/index&#x27;), (&lt;lazyT &#x27;Errors&#x27;&gt;, False, &#x27;/admin/default/errors/NOUVELLES_EN_LIGNE&#x27;), (&lt;lazyT &#x27;About&#x27;&gt;, False, &#x27;/admin/default/about/NOUVELLES_EN_LIGNE&#x27;)]</div></td></tr></table></div></td></tr><tr><td><div><table><tr><td><div>web2py.com</div></td></tr><tr><td><div>False</div></td></tr><tr><td><div>http://www.web2py.com</div></td></tr><tr><td><div>[(&lt;lazyT &#x27;Download&#x27;&gt;, False, &#x27;http://www.web2py.com/examples/default/download&#x27;), (&lt;lazyT &#x27;Support&#x27;&gt;, False, &#x27;http://www.web2py.com/examples/default/support&#x27;), (&lt;lazyT &#x27;Demo&#x27;&gt;, False, &#x27;http://web2py.com/demo_admin&#x27;), (&lt;lazyT &#x27;Quick Examples&#x27;&gt;, False, &#x27;http://web2py.com/examples/default/examples&#x27;), (&lt;lazyT &#x27;FAQ&#x27;&gt;, False, &#x27;http://web2py.com/AlterEgo&#x27;), (&lt;lazyT &#x27;Videos&#x27;&gt;, False, &#x27;http://www.web2py.com/examples/default/videos/&#x27;), (&lt;lazyT &#x27;Free Applications&#x27;&gt;, False, &#x27;http://web2py.com/appliances&#x27;), (&lt;lazyT &#x27;Plugins&#x27;&gt;, False, &#x27;http://web2py.com/plugins&#x27;), (&lt;lazyT &#x27;Layouts&#x27;&gt;, False, &#x27;http://web2py.com/layouts&#x27;), (&lt;lazyT &#x27;Recipes&#x27;&gt;, False, &#x27;http://web2pyslices.com/&#x27;), (&lt;lazyT &#x27;Semantic&#x27;&gt;, False, &#x27;http://web2py.com/semantic&#x27;)]</div></td></tr></table></div></td></tr><tr><td><div><table><tr><td><div>Documentation</div></td></tr><tr><td><div>False</div></td></tr><tr><td><div>http://www.web2py.com/book</div></td></tr><tr><td><div>[(&lt;lazyT &#x27;Preface&#x27;&gt;, False, &#x27;http://www.web2py.com/book/default/chapter/00&#x27;), (&lt;lazyT &#x27;Introduction&#x27;&gt;, False, &#x27;http://www.web2py.com/book/default/chapter/01&#x27;), (&lt;lazyT &#x27;Python&#x27;&gt;, False, &#x27;http://www.web2py.com/book/default/chapter/02&#x27;), (&lt;lazyT &#x27;Overview&#x27;&gt;, False, &#x27;http://www.web2py.com/book/default/chapter/03&#x27;), (&lt;lazyT &#x27;The Core&#x27;&gt;, False, &#x27;http://www.web2py.com/book/default/chapter/04&#x27;), (&lt;lazyT &#x27;The Views&#x27;&gt;, False, &#x27;http://www.web2py.com/book/default/chapter/05&#x27;), (&lt;lazyT &#x27;Database&#x27;&gt;, False, &#x27;http://www.web2py.com/book/default/chapter/06&#x27;), (&lt;lazyT &#x27;Forms and Validators&#x27;&gt;, False, &#x27;http://www.web2py.com/book/default/chapter/07&#x27;), (&lt;lazyT &#x27;Email and SMS&#x27;&gt;, False, &#x27;http://www.web2py.com/book/default/chapter/08&#x27;), (&lt;lazyT &#x27;Access Control&#x27;&gt;, False, &#x27;http://www.web2py.com/book/default/chapter/09&#x27;), (&lt;lazyT &#x27;Services&#x27;&gt;, False, &#x27;http://www.web2py.com/book/default/chapter/10&#x27;), (&lt;lazyT &#x27;Ajax Recipes&#x27;&gt;, False, &#x27;http://www.web2py.com/book/default/chapter/11&#x27;), (&lt;lazyT &#x27;Components and Plugins&#x27;&gt;, False, &#x27;http://www.web2py.com/book/default/chapter/12&#x27;), (&lt;lazyT &#x27;Deployment Recipes&#x27;&gt;, False, &#x27;http://www.web2py.com/book/default/chapter/13&#x27;), (&lt;lazyT &#x27;Other Recipes&#x27;&gt;, False, &#x27;http://www.web2py.com/book/default/chapter/14&#x27;), (&lt;lazyT &#x27;Buy this book&#x27;&gt;, False, &#x27;http://stores.lulu.com/web2py&#x27;)]</div></td></tr></table></div></td></tr><tr><td><div><table><tr><td><div>Community</div></td></tr><tr><td><div>False</div></td></tr><tr><td><div>None</div></td></tr><tr><td><div>[(&lt;lazyT &#x27;Groups&#x27;&gt;, False, &#x27;http://www.web2py.com/examples/default/usergroups&#x27;), (&lt;lazyT &#x27;Twitter&#x27;&gt;, False, &#x27;http://twitter.com/web2py&#x27;), (&lt;lazyT &#x27;Live Chat&#x27;&gt;, False, &#x27;http://webchat.freenode.net/?channels=web2py&#x27;)]</div></td></tr></table></div></td></tr><tr><td><div><table><tr><td><div>Plugins</div></td></tr><tr><td><div>False</div></td></tr><tr><td><div>None</div></td></tr><tr><td><div>[(&#x27;plugin_wiki&#x27;, False, &#x27;http://web2py.com/examples/default/download&#x27;), (&lt;lazyT &#x27;Other Plugins&#x27;&gt;, False, &#x27;http://web2py.com/plugins&#x27;), (&lt;lazyT &#x27;Layout Plugins&#x27;&gt;, False, &#x27;http://web2py.com/layouts&#x27;)]</div></td></tr></table></div></td></tr></table></div></td></tr></table></div></td></tr></table></div></td></tr><tr><td style="font-weight:bold;vertical-align:top">meta</td><td valign="top">:</td><td><div><table><tr><td style="font-weight:bold;vertical-align:top">author</td><td valign="top">:</td><td><div>Your Name &lt;you@example.com&gt;</div></td></tr><tr><td style="font-weight:bold;vertical-align:top">description</td><td valign="top">:</td><td><div>a cool new app</div></td></tr><tr><td style="font-weight:bold;vertical-align:top">generator</td><td valign="top">:</td><td><div>Web2py Web Framework</div></td></tr><tr><td style="font-weight:bold;vertical-align:top">keywords</td><td valign="top">:</td><td><div>web2py, python, framework</div></td></tr></table></div></td></tr><tr><td style="font-weight:bold;vertical-align:top">models_to_run</td><td valign="top">:</td><td><div><table><tr><td><div>^\\w+\\.py$</div></td></tr><tr><td><div>^default/\\w+\\.py$</div></td></tr><tr><td><div>^default/home/\\w+\\.py$</div></td></tr></table></div></td></tr><tr><td style="font-weight:bold;vertical-align:top">postprocessing</td><td valign="top">:</td><td><div><table></table></div></td></tr><tr><td style="font-weight:bold;vertical-align:top">session_cookie_expires</td><td valign="top">:</td><td><div>None</div></td></tr><tr><td style="font-weight:bold;vertical-align:top">session_data_name</td><td valign="top">:</td><td><div>session_data_nouvelles_en_ligne</div></td></tr><tr><td style="font-weight:bold;vertical-align:top">session_file</td><td valign="top">:</td><td><div>&lt;open file &#x27;/home/akshita/IIIT/II Year/III semester/SSAD/web2py/applications/NOUVELLES_EN_LIGNE/sessions/127.0.0.1-7e484384-59ee-4d15-ac06-3487b6021fe5&#x27;, mode &#x27;rb+&#x27; at 0x7fc4282d1270&gt;</div></td></tr><tr><td style="font-weight:bold;vertical-align:top">session_filename</td><td valign="top">:</td><td><div>/home/akshita/IIIT/II Year/III semester/SSAD/web2py/applications/NOUVELLES_EN_LIGNE/sessions/127.0.0.1-7e484384-59ee-4d15-ac06-3487b6021fe5</div></td></tr><tr><td style="font-weight:bold;vertical-align:top">session_id</td><td valign="top">:</td><td><div>127.0.0.1-7e484384-59ee-4d15-ac06-3487b6021fe5</div></td></tr><tr><td style="font-weight:bold;vertical-align:top">session_id_name</td><td valign="top">:</td><td><div>session_id_nouvelles_en_ligne</div></td></tr><tr><td style="font-weight:bold;vertical-align:top">session_locked</td><td valign="top">:</td><td><div>True</div></td></tr><tr><td style="font-weight:bold;vertical-align:top">session_new</td><td valign="top">:</td><td><div>False</div></td></tr><tr><td style="font-weight:bold;vertical-align:top">session_storage_type</td><td valign="top">:</td><td><div>file</div></td></tr><tr><td style="font-weight:bold;vertical-align:top">status</td><td valign="top">:</td><td><div>200</div></td></tr><tr><td style="font-weight:bold;vertical-align:top">subtitle</td><td valign="top">:</td><td><div>customize me!</div></td></tr><tr><td style="font-weight:bold;vertical-align:top">title</td><td valign="top">:</td><td><div>Nouvelles En Ligne</div></td></tr><tr><td style="font-weight:bold;vertical-align:top">view</td><td valign="top">:</td><td><div>default/home.html</div></td></tr></table></div>'
tRp345
sS'locals'
p346
(dp347
S'value'
p348
S'0'
sssS'traceback'
p349
S'Traceback (most recent call last):\n  File "/home/akshita/IIIT/II Year/III semester/SSAD/web2py/gluon/restricted.py", line 212, in restricted\n    exec ccode in environment\n  File "/home/akshita/IIIT/II Year/III semester/SSAD/web2py/applications/NOUVELLES_EN_LIGNE/controllers/default.py", line 261, in <module>\n  File "/home/akshita/IIIT/II Year/III semester/SSAD/web2py/gluon/globals.py", line 194, in <lambda>\n    self._caller = lambda f: f()\n  File "/home/akshita/IIIT/II Year/III semester/SSAD/web2py/applications/NOUVELLES_EN_LIGNE/controllers/default.py", line 91, in home\n    c = db((db.news.posted_by == id2) & (db.auth_user.id == db.news.posted_by)).select(db.auth_user.ALL)[0]\n  File "/home/akshita/IIIT/II Year/III semester/SSAD/web2py/gluon/dal.py", line 9958, in select\n    return adapter.select(self.query,fields,attributes)\n  File "/home/akshita/IIIT/II Year/III semester/SSAD/web2py/gluon/dal.py", line 2245, in select\n    return super(SQLiteAdapter, self).select(query, fields, attributes)\n  File "/home/akshita/IIIT/II Year/III semester/SSAD/web2py/gluon/dal.py", line 1704, in select\n    return self._select_aux(sql,fields,attributes)\n  File "/home/akshita/IIIT/II Year/III semester/SSAD/web2py/gluon/dal.py", line 1685, in _select_aux\n    return processor(rows,fields,self._colnames,cacheable=cacheable)\n  File "/home/akshita/IIIT/II Year/III semester/SSAD/web2py/gluon/dal.py", line 2055, in parse\n    value = self.parse_value(value,ft,blob_decode)\n  File "/home/akshita/IIIT/II Year/III semester/SSAD/web2py/gluon/dal.py", line 1903, in parse_value\n    return self.parsemap[key](value,field_type)\n  File "/home/akshita/IIIT/II Year/III semester/SSAD/web2py/gluon/dal.py", line 1970, in parse_list_integers\n    value = bar_decode_integer(value)\n  File "/home/akshita/IIIT/II Year/III semester/SSAD/web2py/gluon/dal.py", line 6839, in bar_decode_integer\n    return [long(x) for x in value.split(\'|\') if x.strip()]\nAttributeError: \'int\' object has no attribute \'split\'\n'
p350
s.