(dp1
S'output'
p2
S"<type 'exceptions.ValueError'> invalid literal for long() with base 10: 'Ayush Negi'"
p3
sS'layer'
p4
S'/home/akshita/IIIT/II Year/III semester/SSAD/web2py/applications/NOUVELLES_EN_LIGNE/controllers/default.py'
p5
sS'code'
p6
S'# -*- coding: utf-8 -*-\n# this file is released under public domain and you can use without limitations\n\n#########################################################################\n## This is a sample controller\n## - index is the default action of any application\n## - user is required for authentication and authorization\n## - download is for downloading files uploaded in the db (does streaming)\n## - call exposes all registered services (none by default)\n#########################################################################\n\n\ndef index():\n    """\n    example action using the internationalization operator T and flash\n    rendered by views/default/index.html or views/generic.html\n\n    if you need a simple wiki simple replace the two lines below with:\n    return auth.wiki()\n    """\n    response.flash = T("Welcome to web2py!")\n    return dict(message=T(\'Hello World\'))\n\n\ndef user():\n    """\n    exposes:\n    http://..../[app]/default/user/login\n    http://..../[app]/default/user/logout\n    http://..../[app]/default/user/register\n    http://..../[app]/default/user/profile\n    http://..../[app]/default/user/retrieve_password\n    http://..../[app]/default/user/change_password\n    http://..../[app]/default/user/manage_users (requires membership in \n    use @auth.requires_login()\n        @auth.requires_membership(\'group name\')\n        @auth.requires_permission(\'read\',\'table name\',record_id)\n    to decorate functions that need access control\n    """\n    return dict(form=auth())\n\n@cache.action()\ndef download():\n    """\n    allows downloading of uploaded files\n    http://..../[app]/default/download/[filename]\n    """\n    return response.download(request, db)\n\n\ndef call():\n    """\n    exposes services. for example:\n    http://..../[app]/default/call/jsonrpc\n    decorate with @services.jsonrpc the functions to expose\n    supports xml, json, xmlrpc, jsonrpc, amfrpc, rss, csv\n    """\n    return service()\n\n\n@auth.requires_signature()\ndef data():\n    """\n    http://..../[app]/default/data/tables\n    http://..../[app]/default/data/create/[table]\n    http://..../[app]/default/data/read/[table]/[id]\n    http://..../[app]/default/data/update/[table]/[id]\n    http://..../[app]/default/data/delete/[table]/[id]\n    http://..../[app]/default/data/select/[table]\n    http://..../[app]/default/data/search/[table]\n    but URLs must be signed, i.e. linked with\n      A(\'table\',_href=URL(\'data/tables\',user_signature=True))\n    or with the signed load operator\n      LOAD(\'default\',\'data.load\',args=\'tables\',ajax=True,user_signature=True)\n    """\n    return dict(form=crud())\nimport datetime\ndef home():\n\ta=db(db.news.id > 0).select(db.news.ALL,orderby=~db.news.likes)\n\ty=[]\n\tt=[]\n\tm1 = db(db.category.id > 0).select(db.category.ALL)\n\tfor k in m1:\n\t\tw=k.name\n\t\tt.append(w)\n#for k in m1:\n#\t\tt.append(k.name)\n\tfor k in a:\n\t\tx={}\n\t\tid2 = k[\'posted_by\']\n\t\tc = db((db.news.posted_by == id2) & (db.auth_user.id == db.news.posted_by)).select(db.auth_user.ALL)[0]\n\t\tid1=k[\'Category\']\n\t\tb=db((db.news.Category == id1) & (db.category.id == db.news.Category)).select(db.category.ALL)[0]\n\t\tx[\'Head\']=k[\'Heading\']\n\t\tx[\'Cat\']=b[\'name\']\n\t\tx[\'id\']=k[\'id\']\n\t\tx[\'Des\']=k[\'Description\']\n\t\tx[\'By\']=str(c[\'first_name\'])+" " +str(c[\'last_name\'])\n\t\tx[\'On\']=k[\'posted_on\']\n\t\tx[\'likes\']=str(k[\'likes\'])\n\t\tx[\'url\']=k[\'Url\']\n\t\ty.append(x)\n\t\t\n\treturn locals()\ndef catgry():\n\ta=db(db.category.id > 0).select(db.category.ALL)\n\tt=[]\n\tfor k in a:\n\t\tw=k.name\n\t\tt.append(w)\n\tfor k in a:\n\t\tprint request.args(0)\n\t\tif k[\'name\']==request.args(0):\n\t\t\tz=k[\'id\']\n\t\t\ty=[]\n\t\t\tc=db((db.category.id == z)&(db.news.Category==db.category.id)).select(db.news.ALL,orderby=~db.news.likes)\n\t\t\tfor w in c:\n\t\t\t\tx={}\n\t\t\t\tid2 = w[\'posted_by\']\n\t\t\t\tc1 = db((db.news.posted_by == id2) & (db.auth_user.id == db.news.posted_by)).select(db.auth_user.ALL)[0]\n\t\t\t\tx[\'Head\']=w[\'Heading\']\n\t\t\t\tx[\'Cat\']=k[\'name\']\n\t\t\t\tx[\'Des\']=w[\'Description\']\n\t\t\t\tx[\'By\']=str(c1[\'first_name\'])+" " +str(c1[\'last_name\'])\n\t\t\t\tx[\'On\']=w[\'posted_on\']\n\t\t\t\tx[\'likes\']=str(w[\'likes\'])\n\t\t\t\tx[\'url\']=w[\'Url\']\n\t\t\t\tx[\'id\']=w[\'id\']\n\t\t\t\ty.append(x)\n\n\treturn locals()\n@auth.requires_login()\t\ndef post():\n#\tdb.news.likes.writable=db.news.likes.readable=False\n#idb.news.cmmnt.writable=db.news.cmmnt.readable=False\n\tdb.news.posted_on.readable=db.news.posted_on.writable=False\n\tusr=db(db.auth_user.id==auth.user_id).select(db.auth_user.ALL)[0]\n\tdb.news.posted_by.default=str(usr[\'first_name\'])+" "+str(usr[\'last_name\'])\n\tdb.news.posted_by.readable=db.news.posted_by.writable=False\n\tdb.news.likes.readable=db.news.likes.writable=False\n\tform=SQLFORM(db.news)\n\tif form.process().accepted:\n\t\tresponse.flash=\'form accepted\'\n\t\tredirect(URL(r=request,f=\'home\'))\n\telif form.errors:\n\t\tresponse.flash=\'form has errors\'\n\treturn locals()\ndef show():\n\tid1=request.args(0)\n\ta=db((db.category.id==id1)&(db.news.Category==db.category.id)).select(db.news.ALL)[0]\n\tprint str(a[\'Heading\'])\n#+\'\\n\'+str(a[\'Category\'])+\'\\n\'str(a[\'Url\'])+\'\\n\'str(a[\'Description\'])+\'\\n\'str(a[\'posted_by\'])+\'\\n\'str(a[\'posted_on\'])\n\treturn locals()\ndef view():\n\ta=db(db.category.id>0).select(db.category.ALL)\n\ty=[]\n\tfor k in a:\n\t\tid1=k[\'id\']\n\t\tx=k[\'name\']\n\t\ty.append(db((db.category.id==id1)&(db.news.Category == db.category.id)).select(db.category.name,db.news.Heading,db.news.Url,db.news.posted_by,db.news.Category,db.news.posted_on,db.news.Description))\n\t\ty.append(db(db.news.id==db.comments.new_id).select(db.comments.body))\n\treturn locals()\n@auth.requires_login()\ndef likes_c():\n\tid1=request.args(0)\n\ta=db(db.news.id == id1).select(db.news.ALL)[0]\n\ty=db((db.news.id==id1)&(db.news.Category == db.category.id)).select(db.category.ALL)[0]\n\tz="catgry.html/"+str(y[\'name\'])\n\tprint z\n\ta.likes+=5\n\ta.update_record()\n\tredirect(URL(r=request,f=z))\n\treturn locals()\n@auth.requires_login()\ndef unlike_c():\n\tid1=request.args(0)\n\ta=db(db.news.id == id1).select(db.news.ALL)[0]\n\ty=db((db.news.id==id1)&(db.news.Category == db.category.id)).select(db.category.ALL)[0]\n\tz="catgry.html/"+str(y[\'name\'])\n\ta.likes-=3\n\ta.update_record()\n\tredirect(URL(r=request,f=z))\n\treturn locals()\n@auth.requires_login()\ndef likes_h():\n\tid1=request.args(0)\n\ta=db(db.news.id == id1).select(db.news.ALL)[0]\n\ta.likes+=5\n\ta.update_record()\n\tredirect(URL(r=request,f=\'home\'))\n\treturn locals()\n@auth.requires_login()\ndef unlike_h():\n\tid1=request.args(0)\n\ta=db(db.news.id == id1).select(db.news.ALL)[0]\n\ta.likes-=3\n\ta.update_record()\n\tredirect(URL(r=request,f=\'home\'))\n\treturn locals()\n@auth.requires_login()\ndef mynews():\n\tt=[]\n\tm1 = db(db.category.id > 0).select(db.category.ALL)\n\tfor k in m1:\n\t\tw=k.name\n\t\tt.append(w)\n\ty=[]\n\ta = db((db.auth_user.id == auth.user_id)&(db.news.posted_by==db.auth_user.id)).select(db.news.ALL,orderby=~db.news.likes)\n\tfor k in a:\n\t\t\t\tx={}\n\t\t\t\tx[\'Head\']=k[\'Heading\']\n\t\t\t\tx[\'Cat\']=k[\'Category\']\n\t\t\t\tx[\'Des\']=k[\'Description\']\n\t\t\t\tx[\'On\']=k[\'posted_on\']\n\t\t\t\tx[\'likes\']=str(k[\'likes\'])\n\t\t\t\tx[\'url\']=k[\'Url\']\n\t\t\t\tx[\'id\']=k[\'id\']\n\t\t\t\ty.append(x)\n\treturn locals()\n@auth.requires_login()\ndef edit_news():\n\tid1=int(request.args(0))\n\tdb.news.likes.writable=db.news.likes.readable=False\n\tdb.news.posted_on.readable=db.news.posted_on.writable=False\n\tform=SQLFORM(db.news,id1)\n\tif form.accepts(request.vars,session):\n\t\tredirect(URL(r=request,f=mynews))\n\telif form.errors:\n\t \tresponse.flash=\'errors\'\n\treturn locals()\n@auth.requires_login()\ndef delete_news():\n\tid1=int(request.args(0))\n\tdb(db.news.id == id1).delete()\n\tredirect(URL(r=request,f=mynews))\n\treturn locals()\n@auth.requires_login()\ndef add_comments():\n\tid1=int(request.args(0))\n#a=db((db.news.id==id1)&(db.comments.new_id==db.news.id)).select(db.comments.ALL)[0]\n\ty=db((db.news.id==id1)&(db.news.Category == db.category.id)).select(db.category.ALL)[0]\n\tdb.comments.new_id.default=id1\n\tz="catgry.html/"+str(y[\'name\'])\n\tdb.comments.new_id.writable=db.comments.new_id.readable=False\n\tform=SQLFORM(db.comments)\n\tif form.accepts(request.vars,session):\n\t\tredirect(URL(r=request,f=z))\n\telif form.errors:\n\t \tresponse.flash="errors"\n\treturn locals()\ndef add_comments_h():\n\tid1=int(request.args(0))\n#a=db((db.news.id==id1)&(db.comments.new_id==db.news.id)).select(db.comments.ALL)[0]\n\tdb.comments.new_id.default=id1\n\tdb.comments.new_id.writable=db.comments.new_id.readable=False\n\tform=SQLFORM(db.comments)\n\tif form.accepts(request.vars,session):\n\t\tredirect(URL(r=request,f=home))\n\telif form.errors:\n\t \tresponse.flash="errors"\n\treturn locals()\n\nresponse._vars=response._caller(post)\n'
p7
sS'snapshot'
p8
(dp9
S'exception'
p10
(dp11
S'__hash__'
p12
S"<method-wrapper '__hash__' of exceptions.ValueError object>"
p13
sS'__setattr__'
p14
S"<method-wrapper '__setattr__' of exceptions.ValueError object>"
p15
sS'__reduce_ex__'
p16
S'<built-in method __reduce_ex__ of exceptions.ValueError object>'
p17
sS'__getslice__'
p18
S"<method-wrapper '__getslice__' of exceptions.ValueError object>"
p19
sS'__getitem__'
p20
S"<method-wrapper '__getitem__' of exceptions.ValueError object>"
p21
sS'__setstate__'
p22
S'<built-in method __setstate__ of exceptions.ValueError object>'
p23
sS'args'
p24
S'("invalid literal for long() with base 10: \'Ayush Negi\'",)'
p25
sS'__reduce__'
p26
S'<built-in method __reduce__ of exceptions.ValueError object>'
p27
sS'__str__'
p28
S"<method-wrapper '__str__' of exceptions.ValueError object>"
p29
sS'__format__'
p30
S'<built-in method __format__ of exceptions.ValueError object>'
p31
sS'__getattribute__'
p32
S"<method-wrapper '__getattribute__' of exceptions.ValueError object>"
p33
sS'__class__'
p34
S"<type 'exceptions.ValueError'>"
p35
sS'__unicode__'
p36
S'<built-in method __unicode__ of exceptions.ValueError object>'
p37
sS'__delattr__'
p38
S"<method-wrapper '__delattr__' of exceptions.ValueError object>"
p39
sS'__subclasshook__'
p40
S'<built-in method __subclasshook__ of type object>'
p41
sS'__repr__'
p42
S"<method-wrapper '__repr__' of exceptions.ValueError object>"
p43
sS'__dict__'
p44
S'{}'
p45
sS'__sizeof__'
p46
S'<built-in method __sizeof__ of exceptions.ValueError object>'
p47
sS'__doc__'
p48
S"'Inappropriate argument value (of correct type).'"
p49
sS'__init__'
p50
S"<method-wrapper '__init__' of exceptions.ValueError object>"
p51
sS'__new__'
p52
S'<built-in method __new__ of type object>'
p53
ssS'evalue'
p54
S"invalid literal for long() with base 10: 'Ayush Negi'"
p55
sS'request'
p56
cgluon.html
XML_unpickle
p57
(S's.e\x00\x00<div><table><tr><td style="font-weight:bold;vertical-align:top">ajax</td><td valign="top">:</td><td><div>False</div></td></tr><tr><td style="font-weight:bold;vertical-align:top">application</td><td valign="top">:</td><td><div>NOUVELLES_EN_LIGNE</div></td></tr><tr><td style="font-weight:bold;vertical-align:top">args</td><td valign="top">:</td><td><div><table></table></div></td></tr><tr><td style="font-weight:bold;vertical-align:top">body</td><td valign="top">:</td><td><div>&lt;open file &#x27;&lt;fdopen&gt;&#x27;, mode &#x27;w+b&#x27; at 0x7fc4344c6930&gt;</div></td></tr><tr><td style="font-weight:bold;vertical-align:top">cid</td><td valign="top">:</td><td><div>None</div></td></tr><tr><td style="font-weight:bold;vertical-align:top">client</td><td valign="top">:</td><td><div>127.0.0.1</div></td></tr><tr><td style="font-weight:bold;vertical-align:top">controller</td><td valign="top">:</td><td><div>default</div></td></tr><tr><td style="font-weight:bold;vertical-align:top">cookies</td><td valign="top">:</td><td><div><table><tr><td style="font-weight:bold;vertical-align:top">session_id_admin</td><td valign="top">:</td><td><div>127.0.0.1-23e49fd4-a45e-4860-a32f-40990151b536<table><tr><td style="font-weight:bold;vertical-align:top">comment</td><td valign="top">:</td><td><div></div></td></tr><tr><td style="font-weight:bold;vertical-align:top">domain</td><td valign="top">:</td><td><div></div></td></tr><tr><td style="font-weight:bold;vertical-align:top">expires</td><td valign="top">:</td><td><div></div></td></tr><tr><td style="font-weight:bold;vertical-align:top">httponly</td><td valign="top">:</td><td><div></div></td></tr><tr><td style="font-weight:bold;vertical-align:top">max-age</td><td valign="top">:</td><td><div></div></td></tr><tr><td style="font-weight:bold;vertical-align:top">path</td><td valign="top">:</td><td><div></div></td></tr><tr><td style="font-weight:bold;vertical-align:top">secure</td><td valign="top">:</td><td><div></div></td></tr><tr><td style="font-weight:bold;vertical-align:top">version</td><td valign="top">:</td><td><div></div></td></tr></table></div></td></tr><tr><td style="font-weight:bold;vertical-align:top">session_id_lmsauto</td><td valign="top">:</td><td><div>127.0.0.1-7aa24e3c-989c-4869-a99e-89fd038347d9<table><tr><td style="font-weight:bold;vertical-align:top">comment</td><td valign="top">:</td><td><div></div></td></tr><tr><td style="font-weight:bold;vertical-align:top">domain</td><td valign="top">:</td><td><div></div></td></tr><tr><td style="font-weight:bold;vertical-align:top">expires</td><td valign="top">:</td><td><div></div></td></tr><tr><td style="font-weight:bold;vertical-align:top">httponly</td><td valign="top">:</td><td><div></div></td></tr><tr><td style="font-weight:bold;vertical-align:top">max-age</td><td valign="top">:</td><td><div></div></td></tr><tr><td style="font-weight:bold;vertical-align:top">path</td><td valign="top">:</td><td><div></div></td></tr><tr><td style="font-weight:bold;vertical-align:top">secure</td><td valign="top">:</td><td><div></div></td></tr><tr><td style="font-weight:bold;vertical-align:top">version</td><td valign="top">:</td><td><div></div></td></tr></table></div></td></tr><tr><td style="font-weight:bold;vertical-align:top">session_id_nouvelles_en_ligne</td><td valign="top">:</td><td><div>127.0.0.1-7e484384-59ee-4d15-ac06-3487b6021fe5<table><tr><td style="font-weight:bold;vertical-align:top">comment</td><td valign="top">:</td><td><div></div></td></tr><tr><td style="font-weight:bold;vertical-align:top">domain</td><td valign="top">:</td><td><div></div></td></tr><tr><td style="font-weight:bold;vertical-align:top">expires</td><td valign="top">:</td><td><div></div></td></tr><tr><td style="font-weight:bold;vertical-align:top">httponly</td><td valign="top">:</td><td><div></div></td></tr><tr><td style="font-weight:bold;vertical-align:top">max-age</td><td valign="top">:</td><td><div></div></td></tr><tr><td style="font-weight:bold;vertical-align:top">path</td><td valign="top">:</td><td><div></div></td></tr><tr><td style="font-weight:bold;vertical-align:top">secure</td><td valign="top">:</td><td><div></div></td></tr><tr><td style="font-weight:bold;vertical-align:top">version</td><td valign="top">:</td><td><div></div></td></tr></table></div></td></tr><tr><td style="font-weight:bold;vertical-align:top">session_id_welcome</td><td valign="top">:</td><td><div>127.0.0.1-f0bcbe00-61a4-4249-a22b-826742ea1ada<table><tr><td style="font-weight:bold;vertical-align:top">comment</td><td valign="top">:</td><td><div></div></td></tr><tr><td style="font-weight:bold;vertical-align:top">domain</td><td valign="top">:</td><td><div></div></td></tr><tr><td style="font-weight:bold;vertical-align:top">expires</td><td valign="top">:</td><td><div></div></td></tr><tr><td style="font-weight:bold;vertical-align:top">httponly</td><td valign="top">:</td><td><div></div></td></tr><tr><td style="font-weight:bold;vertical-align:top">max-age</td><td valign="top">:</td><td><div></div></td></tr><tr><td style="font-weight:bold;vertical-align:top">path</td><td valign="top">:</td><td><div></div></td></tr><tr><td style="font-weight:bold;vertical-align:top">secure</td><td valign="top">:</td><td><div></div></td></tr><tr><td style="font-weight:bold;vertical-align:top">version</td><td valign="top">:</td><td><div></div></td></tr></table></div></td></tr></table></div></td></tr><tr><td style="font-weight:bold;vertical-align:top">env</td><td valign="top">:</td><td><div><table><tr><td style="font-weight:bold;vertical-align:top">app_folders</td><td valign="top">:</td><td><div>set([&#x27;/home/akshita/IIIT/II Year/III semester/SSAD/web2py/applications/admin/&#x27;, &#x27;/home/akshita/IIIT/II Year/III semester/SSAD/web2py/applications/welcome/&#x27;, &#x27;/home/akshita/IIIT/II Year/III semester/SSAD/web2py/applications/lmsauto/&#x27;, &#x27;/home/akshita/IIIT/II Year/III semester/SSAD/web2py/applications/NOUVELLES_EN_LIGNE/&#x27;])</div></td></tr><tr><td style="font-weight:bold;vertical-align:top">applications_parent</td><td valign="top">:</td><td><div>/home/akshita/IIIT/II Year/III semester/SSAD/web2py</div></td></tr><tr><td style="font-weight:bold;vertical-align:top">cmd_args</td><td valign="top">:</td><td><div><table></table></div></td></tr><tr><td style="font-weight:bold;vertical-align:top">cmd_options</td><td valign="top">:</td><td><div>&lt;Values at 0x2f9be60: {&#x27;verbose&#x27;: False, &#x27;ip&#x27;: &#x27;127.0.0.1&#x27;, &#x27;with_scheduler&#x27;: False, &#x27;ips&#x27;: [&#x27;127.0.1.1&#x27;], &#x27;shutdown_timeout&#x27;: 5, &#x27;taskbar&#x27;: False, &#x27;with_coverage&#x27;: False, &#x27;port&#x27;: 8000, &#x27;maxthreads&#x27;: None, &#x27;softcron&#x27;: False, &#x27;server_name&#x27;: &#x27;ubuntu&#x27;, &#x27;bpython&#x27;: False, &#x27;nogui&#x27;: False, &#x27;pid_filename&#x27;: &#x27;httpserver.pid&#x27;, &#x27;extcron&#x27;: False, &#x27;runcron&#x27;: False, &#x27;run_system_tests&#x27;: False, &#x27;test&#x27;: None, &#x27;folder&#x27;: &#x27;/home/akshita/IIIT/II Year/III semester/SSAD/web2py&#x27;, &#x27;config&#x27;: &#x27;&#x27;, &#x27;minthreads&#x27;: None, &#x27;winservice&#x27;: &#x27;&#x27;, &#x27;shell&#x27;: None, &#x27;run&#x27;: &#x27;&#x27;, &#x27;log_filename&#x27;: &#x27;httpserver.log&#x27;, &#x27;debuglevel&#x27;: 30, &#x27;args&#x27;: [&#x27;&#x27;], &#x27;socket_timeout&#x27;: 5, &#x27;ssl_ca_certificate&#x27;: None, &#x27;scheduler&#x27;: None, &#x27;profiler_filename&#x27;: None, &#x27;ssl_private_key&#x27;: &#x27;&#x27;, &#x27;scheduler_groups&#x27;: None, &#x27;password&#x27;: &#x27;j&#x27;, &#x27;request_queue_size&#x27;: 5, &#x27;ssl_certificate&#x27;: &#x27;&#x27;, &#x27;cronjob&#x27;: False, &#x27;numthreads&#x27;: None, &#x27;quiet&#x27;: False, &#x27;interfaces&#x27;: None, &#x27;import_models&#x27;: False, &#x27;timeout&#x27;: 10, &#x27;plain&#x27;: False, &#x27;nobanner&#x27;: False}&gt;</div></td></tr><tr><td style="font-weight:bold;vertical-align:top">content_length</td><td valign="top">:</td><td><div>917</div></td></tr><tr><td style="font-weight:bold;vertical-align:top">content_type</td><td valign="top">:</td><td><div>multipart/form-data; boundary=---------------------------19247710431177959115456321951</div></td></tr><tr><td style="font-weight:bold;vertical-align:top">db_sessions</td><td valign="top">:</td><td><div>set([])</div></td></tr><tr><td style="font-weight:bold;vertical-align:top">debugging</td><td valign="top">:</td><td><div>False</div></td></tr><tr><td style="font-weight:bold;vertical-align:top">gluon_parent</td><td valign="top">:</td><td><div>/home/akshita/IIIT/II Year/III semester/SSAD/web2py</div></td></tr><tr><td style="font-weight:bold;vertical-align:top">http_accept</td><td valign="top">:</td><td><div>text/html,application/xhtml+xml,application/xml;q=0.9,*/*;q=0.8</div></td></tr><tr><td style="font-weight:bold;vertical-align:top">http_accept_encoding</td><td valign="top">:</td><td><div>gzip, deflate</div></td></tr><tr><td style="font-weight:bold;vertical-align:top">http_accept_language</td><td valign="top">:</td><td><div>en-US,en;q=0.5</div></td></tr><tr><td style="font-weight:bold;vertical-align:top">http_connection</td><td valign="top">:</td><td><div>keep-alive</div></td></tr><tr><td style="font-weight:bold;vertical-align:top">http_content_length</td><td valign="top">:</td><td><div>917</div></td></tr><tr><td style="font-weight:bold;vertical-align:top">http_content_type</td><td valign="top">:</td><td><div>multipart/form-data; boundary=---------------------------19247710431177959115456321951</div></td></tr><tr><td style="font-weight:bold;vertical-align:top">http_cookie</td><td valign="top">:</td><td><div>session_id_welcome=127.0.0.1-f0bcbe00-61a4-4249-a22b-826742ea1ada; session_id_admin=127.0.0.1-23e49fd4-a45e-4860-a32f-40990151b536; session_id_nouvelles_en_ligne=127.0.0.1-7e484384-59ee-4d15-ac06-3487b6021fe5; session_id_lmsauto=127.0.0.1-7aa24e3c-989c-4869-a99e-89fd038347d9</div></td></tr><tr><td style="font-weight:bold;vertical-align:top">http_host</td><td valign="top">:</td><td><div>127.0.0.1:8000</div></td></tr><tr><td style="font-weight:bold;vertical-align:top">http_referer</td><td valign="top">:</td><td><div>http://127.0.0.1:8000/NOUVELLES_EN_LIGNE/default/post.html</div></td></tr><tr><td style="font-weight:bold;vertical-align:top">http_user_agent</td><td valign="top">:</td><td><div>Mozilla/5.0 (X11; Ubuntu; Linux x86_64; rv:23.0) Gecko/20100101 Firefox/23.0</div></td></tr><tr><td style="font-weight:bold;vertical-align:top">is_jython</td><td valign="top">:</td><td><div>False</div></td></tr><tr><td style="font-weight:bold;vertical-align:top">is_pypy</td><td valign="top">:</td><td><div>False</div></td></tr><tr><td style="font-weight:bold;vertical-align:top">local_hosts</td><td valign="top">:</td><td><div><table><tr><td><div>::1</div></td></tr><tr><td><div>127.0.1.1</div></td></tr><tr><td><div>::ffff:127.0.0.1</div></td></tr><tr><td><div>127.0.0.1</div></td></tr><tr><td><div>ubuntu</div></td></tr></table></div></td></tr><tr><td style="font-weight:bold;vertical-align:top">path_info</td><td valign="top">:</td><td><div>/NOUVELLES_EN_LIGNE/default/post.html</div></td></tr><tr><td style="font-weight:bold;vertical-align:top">query_string</td><td valign="top">:</td><td><div></div></td></tr><tr><td style="font-weight:bold;vertical-align:top">remote_addr</td><td valign="top">:</td><td><div>127.0.0.1</div></td></tr><tr><td style="font-weight:bold;vertical-align:top">remote_port</td><td valign="top">:</td><td><div>46634</div></td></tr><tr><td style="font-weight:bold;vertical-align:top">request_method</td><td valign="top">:</td><td><div>POST</div></td></tr><tr><td style="font-weight:bold;vertical-align:top">request_uri</td><td valign="top">:</td><td><div>/NOUVELLES_EN_LIGNE/default/post.html</div></td></tr><tr><td style="font-weight:bold;vertical-align:top">script_name</td><td valign="top">:</td><td><div></div></td></tr><tr><td style="font-weight:bold;vertical-align:top">server_name</td><td valign="top">:</td><td><div>ubuntu</div></td></tr><tr><td style="font-weight:bold;vertical-align:top">server_port</td><td valign="top">:</td><td><div>8000</div></td></tr><tr><td style="font-weight:bold;vertical-align:top">server_protocol</td><td valign="top">:</td><td><div>HTTP/1.1</div></td></tr><tr><td style="font-weight:bold;vertical-align:top">server_software</td><td valign="top">:</td><td><div>Rocket 1.2.6</div></td></tr><tr><td style="font-weight:bold;vertical-align:top">web2py_path</td><td valign="top">:</td><td><div>/home/akshita/IIIT/II Year/III semester/SSAD/web2py</div></td></tr><tr><td style="font-weight:bold;vertical-align:top">web2py_version</td><td valign="top">:</td><td><div>2.5.1-stable+timestamp.2013.06.06.15.39.19</div></td></tr><tr><td style="font-weight:bold;vertical-align:top">wsgi_errors</td><td valign="top">:</td><td><div>&lt;open file &#x27;&lt;stderr&gt;&#x27;, mode &#x27;w&#x27; at 0x7fc445ace270&gt;</div></td></tr><tr><td style="font-weight:bold;vertical-align:top">wsgi_file_wrapper</td><td valign="top">:</td><td><div>&lt;class wsgiref.util.FileWrapper at 0x2eb4a78&gt;</div></td></tr><tr><td style="font-weight:bold;vertical-align:top">wsgi_input</td><td valign="top">:</td><td><div>&lt;socket._fileobject object at 0x7fc43415dc50&gt;</div></td></tr><tr><td style="font-weight:bold;vertical-align:top">wsgi_multiprocess</td><td valign="top">:</td><td><div>False</div></td></tr><tr><td style="font-weight:bold;vertical-align:top">wsgi_multithread</td><td valign="top">:</td><td><div>True</div></td></tr><tr><td style="font-weight:bold;vertical-align:top">wsgi_run_once</td><td valign="top">:</td><td><div>False</div></td></tr><tr><td style="font-weight:bold;vertical-align:top">wsgi_url_scheme</td><td valign="top">:</td><td><div>http</div></td></tr><tr><td style="font-weight:bold;vertical-align:top">wsgi_version</td><td valign="top">:</td><td><div><table><tr><td><div>1</div></td></tr><tr><td><div>0</div></td></tr></table></div></td></tr></table></div></td></tr><tr><td style="font-weight:bold;vertical-align:top">extension</td><td valign="top">:</td><td><div>html</div></td></tr><tr><td style="font-weight:bold;vertical-align:top">folder</td><td valign="top">:</td><td><div>/home/akshita/IIIT/II Year/III semester/SSAD/web2py/applications/NOUVELLES_EN_LIGNE/</div></td></tr><tr><td style="font-weight:bold;vertical-align:top">function</td><td valign="top">:</td><td><div>post</div></td></tr><tr><td style="font-weight:bold;vertical-align:top">get_vars</td><td valign="top">:</td><td><div><table></table></div></td></tr><tr><td style="font-weight:bold;vertical-align:top">global_settings</td><td valign="top">:</td><td><div><table><tr><td style="font-weight:bold;vertical-align:top">app_folders</td><td valign="top">:</td><td><div>set([&#x27;/home/akshita/IIIT/II Year/III semester/SSAD/web2py/applications/admin/&#x27;, &#x27;/home/akshita/IIIT/II Year/III semester/SSAD/web2py/applications/welcome/&#x27;, &#x27;/home/akshita/IIIT/II Year/III semester/SSAD/web2py/applications/lmsauto/&#x27;, &#x27;/home/akshita/IIIT/II Year/III semester/SSAD/web2py/applications/NOUVELLES_EN_LIGNE/&#x27;])</div></td></tr><tr><td style="font-weight:bold;vertical-align:top">applications_parent</td><td valign="top">:</td><td><div>/home/akshita/IIIT/II Year/III semester/SSAD/web2py</div></td></tr><tr><td style="font-weight:bold;vertical-align:top">cmd_args</td><td valign="top">:</td><td><div><table></table></div></td></tr><tr><td style="font-weight:bold;vertical-align:top">cmd_options</td><td valign="top">:</td><td><div>&lt;Values at 0x2f9be60: {&#x27;verbose&#x27;: False, &#x27;ip&#x27;: &#x27;127.0.0.1&#x27;, &#x27;with_scheduler&#x27;: False, &#x27;ips&#x27;: [&#x27;127.0.1.1&#x27;], &#x27;shutdown_timeout&#x27;: 5, &#x27;taskbar&#x27;: False, &#x27;with_coverage&#x27;: False, &#x27;port&#x27;: 8000, &#x27;maxthreads&#x27;: None, &#x27;softcron&#x27;: False, &#x27;server_name&#x27;: &#x27;ubuntu&#x27;, &#x27;bpython&#x27;: False, &#x27;nogui&#x27;: False, &#x27;pid_filename&#x27;: &#x27;httpserver.pid&#x27;, &#x27;extcron&#x27;: False, &#x27;runcron&#x27;: False, &#x27;run_system_tests&#x27;: False, &#x27;test&#x27;: None, &#x27;folder&#x27;: &#x27;/home/akshita/IIIT/II Year/III semester/SSAD/web2py&#x27;, &#x27;config&#x27;: &#x27;&#x27;, &#x27;minthreads&#x27;: None, &#x27;winservice&#x27;: &#x27;&#x27;, &#x27;shell&#x27;: None, &#x27;run&#x27;: &#x27;&#x27;, &#x27;log_filename&#x27;: &#x27;httpserver.log&#x27;, &#x27;debuglevel&#x27;: 30, &#x27;args&#x27;: [&#x27;&#x27;], &#x27;socket_timeout&#x27;: 5, &#x27;ssl_ca_certificate&#x27;: None, &#x27;scheduler&#x27;: None, &#x27;profiler_filename&#x27;: None, &#x27;ssl_private_key&#x27;: &#x27;&#x27;, &#x27;scheduler_groups&#x27;: None, &#x27;password&#x27;: &#x27;j&#x27;, &#x27;request_queue_size&#x27;: 5, &#x27;ssl_certificate&#x27;: &#x27;&#x27;, &#x27;cronjob&#x27;: False, &#x27;numthreads&#x27;: None, &#x27;quiet&#x27;: False, &#x27;interfaces&#x27;: None, &#x27;import_models&#x27;: False, &#x27;timeout&#x27;: 10, &#x27;plain&#x27;: False, &#x27;nobanner&#x27;: False}&gt;</div></td></tr><tr><td style="font-weight:bold;vertical-align:top">db_sessions</td><td valign="top">:</td><td><div>set([])</div></td></tr><tr><td style="font-weight:bold;vertical-align:top">debugging</td><td valign="top">:</td><td><div>False</div></td></tr><tr><td style="font-weight:bold;vertical-align:top">gluon_parent</td><td valign="top">:</td><td><div>/home/akshita/IIIT/II Year/III semester/SSAD/web2py</div></td></tr><tr><td style="font-weight:bold;vertical-align:top">is_jython</td><td valign="top">:</td><td><div>False</div></td></tr><tr><td style="font-weight:bold;vertical-align:top">is_pypy</td><td valign="top">:</td><td><div>False</div></td></tr><tr><td style="font-weight:bold;vertical-align:top">local_hosts</td><td valign="top">:</td><td><div><table><tr><td><div>::1</div></td></tr><tr><td><div>127.0.1.1</div></td></tr><tr><td><div>::ffff:127.0.0.1</div></td></tr><tr><td><div>127.0.0.1</div></td></tr><tr><td><div>ubuntu</div></td></tr></table></div></td></tr><tr><td style="font-weight:bold;vertical-align:top">web2py_version</td><td valign="top">:</td><td><div>2.5.1-stable+timestamp.2013.06.06.15.39.19</div></td></tr></table></div></td></tr><tr><td style="font-weight:bold;vertical-align:top">is_https</td><td valign="top">:</td><td><div>False</div></td></tr><tr><td style="font-weight:bold;vertical-align:top">is_local</td><td valign="top">:</td><td><div>True</div></td></tr><tr><td style="font-weight:bold;vertical-align:top">is_restful</td><td valign="top">:</td><td><div>False</div></td></tr><tr><td style="font-weight:bold;vertical-align:top">now</td><td valign="top">:</td><td><div>datetime.datetime(2013, 8, 30, 4, 42, 20, 39403)</div></td></tr><tr><td style="font-weight:bold;vertical-align:top">post_vars</td><td valign="top">:</td><td><div><table><tr><td style="font-weight:bold;vertical-align:top">Category</td><td valign="top">:</td><td><div>8</div></td></tr><tr><td style="font-weight:bold;vertical-align:top">Description</td><td valign="top">:</td><td><div>EPIC</div></td></tr><tr><td style="font-weight:bold;vertical-align:top">Heading</td><td valign="top">:</td><td><div>Which Start-Up Could Be the Next Big Thing?</div></td></tr><tr><td style="font-weight:bold;vertical-align:top">Url</td><td valign="top">:</td><td><div>http://www.nytimes.com/interactive/2013/08/30/technology/startups-explorer.html?_r=0</div></td></tr></table></div></td></tr><tr><td style="font-weight:bold;vertical-align:top">raw_args</td><td valign="top">:</td><td><div></div></td></tr><tr><td style="font-weight:bold;vertical-align:top">raw_extension</td><td valign="top">:</td><td><div>html</div></td></tr><tr><td style="font-weight:bold;vertical-align:top">url</td><td valign="top">:</td><td><div>/NOUVELLES_EN_LIGNE/default/post.html</div></td></tr><tr><td style="font-weight:bold;vertical-align:top">utcnow</td><td valign="top">:</td><td><div>datetime.datetime(2013, 8, 29, 23, 12, 20, 39435)</div></td></tr><tr><td style="font-weight:bold;vertical-align:top">uuid</td><td valign="top">:</td><td><div>NOUVELLES_EN_LIGNE/127.0.0.1.2013-08-30.04-42-20.930cfdb0-8514-4832-bd44-5e006bb451c2</div></td></tr><tr><td style="font-weight:bold;vertical-align:top">vars</td><td valign="top">:</td><td><div><table><tr><td style="font-weight:bold;vertical-align:top">Category</td><td valign="top">:</td><td><div>8</div></td></tr><tr><td style="font-weight:bold;vertical-align:top">Description</td><td valign="top">:</td><td><div>EPIC</div></td></tr><tr><td style="font-weight:bold;vertical-align:top">Heading</td><td valign="top">:</td><td><div>Which Start-Up Could Be the Next Big Thing?</div></td></tr><tr><td style="font-weight:bold;vertical-align:top">Url</td><td valign="top">:</td><td><div>http://www.nytimes.com/interactive/2013/08/30/technology/startups-explorer.html?_r=0</div></td></tr></table></div></td></tr><tr><td style="font-weight:bold;vertical-align:top">wsgi</td><td valign="top">:</td><td><div><table><tr><td style="font-weight:bold;vertical-align:top">environ</td><td valign="top">:</td><td><div><table><tr><td style="font-weight:bold;vertical-align:top">CONTENT_LENGTH</td><td valign="top">:</td><td><div>917</div></td></tr><tr><td style="font-weight:bold;vertical-align:top">CONTENT_TYPE</td><td valign="top">:</td><td><div>multipart/form-data; boundary=---------------------------19247710431177959115456321951</div></td></tr><tr><td style="font-weight:bold;vertical-align:top">HTTP_ACCEPT</td><td valign="top">:</td><td><div>text/html,application/xhtml+xml,application/xml;q=0.9,*/*;q=0.8</div></td></tr><tr><td style="font-weight:bold;vertical-align:top">HTTP_ACCEPT_ENCODING</td><td valign="top">:</td><td><div>gzip, deflate</div></td></tr><tr><td style="font-weight:bold;vertical-align:top">HTTP_ACCEPT_LANGUAGE</td><td valign="top">:</td><td><div>en-US,en;q=0.5</div></td></tr><tr><td style="font-weight:bold;vertical-align:top">HTTP_CONNECTION</td><td valign="top">:</td><td><div>keep-alive</div></td></tr><tr><td style="font-weight:bold;vertical-align:top">HTTP_CONTENT_LENGTH</td><td valign="top">:</td><td><div>917</div></td></tr><tr><td style="font-weight:bold;vertical-align:top">HTTP_CONTENT_TYPE</td><td valign="top">:</td><td><div>multipart/form-data; boundary=---------------------------19247710431177959115456321951</div></td></tr><tr><td style="font-weight:bold;vertical-align:top">HTTP_COOKIE</td><td valign="top">:</td><td><div>session_id_welcome=127.0.0.1-f0bcbe00-61a4-4249-a22b-826742ea1ada; session_id_admin=127.0.0.1-23e49fd4-a45e-4860-a32f-40990151b536; session_id_nouvelles_en_ligne=127.0.0.1-7e484384-59ee-4d15-ac06-3487b6021fe5; session_id_lmsauto=127.0.0.1-7aa24e3c-989c-4869-a99e-89fd038347d9</div></td></tr><tr><td style="font-weight:bold;vertical-align:top">HTTP_HOST</td><td valign="top">:</td><td><div>127.0.0.1:8000</div></td></tr><tr><td style="font-weight:bold;vertical-align:top">HTTP_REFERER</td><td valign="top">:</td><td><div>http://127.0.0.1:8000/NOUVELLES_EN_LIGNE/default/post.html</div></td></tr><tr><td style="font-weight:bold;vertical-align:top">HTTP_USER_AGENT</td><td valign="top">:</td><td><div>Mozilla/5.0 (X11; Ubuntu; Linux x86_64; rv:23.0) Gecko/20100101 Firefox/23.0</div></td></tr><tr><td style="font-weight:bold;vertical-align:top">PATH_INFO</td><td valign="top">:</td><td><div>/NOUVELLES_EN_LIGNE/default/post.html</div></td></tr><tr><td style="font-weight:bold;vertical-align:top">QUERY_STRING</td><td valign="top">:</td><td><div></div></td></tr><tr><td style="font-weight:bold;vertical-align:top">REMOTE_ADDR</td><td valign="top">:</td><td><div>127.0.0.1</div></td></tr><tr><td style="font-weight:bold;vertical-align:top">REMOTE_PORT</td><td valign="top">:</td><td><div>46634</div></td></tr><tr><td style="font-weight:bold;vertical-align:top">REQUEST_METHOD</td><td valign="top">:</td><td><div>POST</div></td></tr><tr><td style="font-weight:bold;vertical-align:top">REQUEST_URI</td><td valign="top">:</td><td><div>/NOUVELLES_EN_LIGNE/default/post.html</div></td></tr><tr><td style="font-weight:bold;vertical-align:top">SCRIPT_NAME</td><td valign="top">:</td><td><div></div></td></tr><tr><td style="font-weight:bold;vertical-align:top">SERVER_NAME</td><td valign="top">:</td><td><div>ubuntu</div></td></tr><tr><td style="font-weight:bold;vertical-align:top">SERVER_PORT</td><td valign="top">:</td><td><div>8000</div></td></tr><tr><td style="font-weight:bold;vertical-align:top">SERVER_PROTOCOL</td><td valign="top">:</td><td><div>HTTP/1.1</div></td></tr><tr><td style="font-weight:bold;vertical-align:top">SERVER_SOFTWARE</td><td valign="top">:</td><td><div>Rocket 1.2.6</div></td></tr><tr><td style="font-weight:bold;vertical-align:top">wsgi.errors</td><td valign="top">:</td><td><div>&lt;open file &#x27;&lt;stderr&gt;&#x27;, mode &#x27;w&#x27; at 0x7fc445ace270&gt;</div></td></tr><tr><td style="font-weight:bold;vertical-align:top">wsgi.file_wrapper</td><td valign="top">:</td><td><div>&lt;class wsgiref.util.FileWrapper at 0x2eb4a78&gt;</div></td></tr><tr><td style="font-weight:bold;vertical-align:top">wsgi.input</td><td valign="top">:</td><td><div>&lt;open file &#x27;&lt;fdopen&gt;&#x27;, mode &#x27;w+b&#x27; at 0x7fc4344c6930&gt;</div></td></tr><tr><td style="font-weight:bold;vertical-align:top">wsgi.multiprocess</td><td valign="top">:</td><td><div>False</div></td></tr><tr><td style="font-weight:bold;vertical-align:top">wsgi.multithread</td><td valign="top">:</td><td><div>True</div></td></tr><tr><td style="font-weight:bold;vertical-align:top">wsgi.run_once</td><td valign="top">:</td><td><div>False</div></td></tr><tr><td style="font-weight:bold;vertical-align:top">wsgi.url_scheme</td><td valign="top">:</td><td><div>http</div></td></tr><tr><td style="font-weight:bold;vertical-align:top">wsgi.version</td><td valign="top">:</td><td><div>1</div></td></tr></table></div></td></tr></table></div></td></tr></table></div>'
tRp58
sS'frames'
p59
(lp60
(dp61
S'file'
p62
S'/home/akshita/IIIT/II Year/III semester/SSAD/web2py/gluon/restricted.py'
p63
sS'dump'
p64
(dp65
S'environment'
p66
S"{'A': <class 'gluon.html.A'>, 'ANY_OF': <class 'gluon.validators.ANY_OF'>, 'Auth': <class 'gluon.tools.Auth'>, 'B': <class 'gluon.html.B'>, 'BEAUTIFY': <class 'gluon.html.BEAUTIFY'>, 'BODY': <class 'gluon.html.BODY'>, 'BR': <class 'gluon.html.BR'>, 'BUTTON': <class 'gluon.html.BUTTON'>, 'CAT': <class 'gluon.html.CAT'>, 'CENTER': <class 'gluon.html.CENTER'>, ...}"
p67
sS'ccode'
p68
S'<code object <module> at 0x7fc4101d3930, file "/...VELLES_EN_LIGNE/controllers/default.py", line 13>'
p69
ssS'lnum'
p70
I212
sS'lines'
p71
(dp72
I207
S'    try:'
p73
sI208
S'        if isinstance(code, types.CodeType):'
p74
sI209
S'            ccode = code'
p75
sI210
S'        else:'
p76
sI211
S'            ccode = compile2(code, layer)'
p77
sI212
S'        exec ccode in environment'
p78
sI213
S'    except HTTP:'
p79
sI214
S'        raise'
p80
sI215
S'    except RestrictedError:'
p81
sI216
S'        # do not encapsulate (obfuscate) the original RestrictedError'
p82
ssS'call'
p83
S"(code='# -*- coding: utf-8 -*-\\n# this file is released ... locals()\\n\\nresponse._vars=response._caller(post)\\n', environment={'A': <class 'gluon.html.A'>, 'ANY_OF': <class 'gluon.validators.ANY_OF'>, 'Auth': <class 'gluon.tools.Auth'>, 'B': <class 'gluon.html.B'>, 'BEAUTIFY': <class 'gluon.html.BEAUTIFY'>, 'BODY': <class 'gluon.html.BODY'>, 'BR': <class 'gluon.html.BR'>, 'BUTTON': <class 'gluon.html.BUTTON'>, 'CAT': <class 'gluon.html.CAT'>, 'CENTER': <class 'gluon.html.CENTER'>, ...}, layer='/home/akshita/IIIT/II Year/III semester/SSAD/web...cations/NOUVELLES_EN_LIGNE/controllers/default.py')"
p84
sS'func'
p85
S'restricted'
p86
sa(dp87
g62
S'/home/akshita/IIIT/II Year/III semester/SSAD/web2py/applications/NOUVELLES_EN_LIGNE/controllers/default.py'
p88
sg64
(dp89
sg70
I263
sg71
(dp90
I256
S'\tform=SQLFORM(db.comments)'
p91
sI257
S'\tif form.accepts(request.vars,session):'
p92
sI258
S'\t\tredirect(URL(r=request,f=home))'
p93
sI259
S'\telif form.errors:'
p94
sI260
S'\t \tresponse.flash="errors"'
p95
sI261
S'\treturn locals()'
p96
sI252
S'\tid1=int(request.args(0))'
p97
sI253
S'#a=db((db.news.id==id1)&(db.comments.new_id==db.news.id)).select(db.comments.ALL)[0]'
p98
sI254
S'\tdb.comments.new_id.default=id1'
p99
sI255
S'\tdb.comments.new_id.writable=db.comments.new_id.readable=False'
p100
ssg83
S'()'
p101
sg85
S'<module>'
p102
sa(dp103
g62
S'/home/akshita/IIIT/II Year/III semester/SSAD/web2py/gluon/globals.py'
p104
sg64
(dp105
S'self'
p106
S'undefined'
p107
sS'f'
S'<function post>'
p108
ssg70
I194
sg71
(dp109
I192
S"        self.delimiters = ('{{', '}}')"
p110
sI193
S'        self._vars = None'
p111
sI194
S'        self._caller = lambda f: f()'
p112
sI195
S'        self._view_environment = None'
p113
sI196
S'        self._custom_commit = None'
p114
sI197
S'        self._custom_rollback = None'
p115
sI198
S''
sI189
S'        self.menu = []             # used by the default view layout'
p116
sI190
S'        self.files = []            # used by web2py_ajax.html'
p117
sI191
S'        self.generic_patterns = []  # patterns to allow generic views'
p118
ssg83
S'(f=<function post>)'
p119
sg85
S'<lambda>'
p120
sa(dp121
g62
S'/home/akshita/IIIT/II Year/III semester/SSAD/web2py/gluon/tools.py'
p122
sg64
(dp123
S'action'
p124
S'<function post>'
p125
sS'a'
S'()'
p126
sS'b'
g45
ssg70
I3022
sg71
(dp127
I3017
S'                    flag = condition'
p128
sI3018
S'                if not flag:'
p129
sI3019
S'                    current.session.flash = self.messages.access_denied'
p130
sI3020
S'                    return call_or_redirect('
p131
sI3021
S'                        self.settings.on_failed_authorization)'
p132
sI3022
S'                return action(*a, **b)'
p133
sI3023
S'            f.__doc__ = action.__doc__'
p134
sI3024
S'            f.__name__ = action.__name__'
p135
sI3025
S'            f.__dict__.update(action.__dict__)'
p136
sI3026
S'            return f'
p137
ssg83
S'(*a=(), **b={})'
p138
sg85
S'f'
sa(dp139
g62
S'/home/akshita/IIIT/II Year/III semester/SSAD/web2py/applications/NOUVELLES_EN_LIGNE/controllers/default.py'
p140
sg64
(dp141
S'form.process'
p142
S'<bound method SQLFORM.process of <gluon.sqlhtml.SQLFORM object>>'
p143
sS').accepted'
p144
g107
sS'form'
p145
S'<gluon.sqlhtml.SQLFORM object>'
p146
ssg70
I142
sg71
(dp147
I137
S'\tusr=db(db.auth_user.id==auth.user_id).select(db.auth_user.ALL)[0]'
p148
sI138
S'\tdb.news.posted_by.default=str(usr[\'first_name\'])+" "+str(usr[\'last_name\'])'
p149
sI139
S'\tdb.news.posted_by.readable=db.news.posted_by.writable=False'
p150
sI140
S'\tdb.news.likes.readable=db.news.likes.writable=False'
p151
sI141
S'\tform=SQLFORM(db.news)'
p152
sI142
S'\tif form.process().accepted:'
p153
sI143
S"\t\tresponse.flash='form accepted'"
p154
sI144
S"\t\tredirect(URL(r=request,f='home'))"
p155
sI145
S'\telif form.errors:'
p156
sI146
S"\t\tresponse.flash='form has errors'"
p157
ssg83
S'()'
p158
sg85
S'post'
p159
sa(dp160
g62
S'/home/akshita/IIIT/II Year/III semester/SSAD/web2py/gluon/html.py'
p161
sg64
(dp162
S'self'
p163
S'<gluon.sqlhtml.SQLFORM object>'
p164
sS'self.validate'
p165
S'<bound method SQLFORM.validate of <gluon.sqlhtml.SQLFORM object>>'
p166
sS'kwargs'
p167
S"{'dbio': True}"
p168
ssg70
I2188
sg71
(dp169
I2183
S'        def action():'
p170
sI2184
S'            return dict(form=SQLFORM(db.table).process(onsuccess=my_callback)'
p171
sI2185
S'        """'
p172
sI2186
S"        kwargs['dbio'] = kwargs.get('dbio', True)"
p173
sI2187
S'                                    # necessary for SQLHTML forms'
p174
sI2188
S'        self.validate(**kwargs)'
p175
sI2189
S'        return self'
p176
sI2190
S''
sI2191
S'    REDIRECT_JS = "window.location=\'%s\';return false"'
p177
sI2192
S''
ssg83
S"(self=<gluon.sqlhtml.SQLFORM object>, **kwargs={'dbio': True})"
p178
sg85
S'process'
p179
sa(dp180
g62
S'/home/akshita/IIIT/II Year/III semester/SSAD/web2py/gluon/html.py'
p181
sg64
(dp182
S'self'
p183
S'<gluon.sqlhtml.SQLFORM object>'
p184
sS'self.accepts'
p185
S'<bound method SQLFORM.accepts of <gluon.sqlhtml.SQLFORM object>>'
p186
sS'kwargs'
p187
S"{'dbio': True, 'request_vars': <Storage {'Category': '8', 'Description': 'EPIC'...-b159-2af02eb9aa5c', '_formname': 'news/create'}>, 'session': <Storage {'_user_agent': {'is_mobile': False, 'i...ser/4]': '444ee719-75af-4e30-9809-480e1a262f5c'}>}"
p188
ssg70
I2127
sg71
(dp189
I2122
S"        for key in ('message_onsuccess', 'message_onfailure', 'onsuccess',"
p190
sI2123
S"                    'onfailure', 'next', 'message_onchange', 'onchange'):"
p191
sI2124
S'            if key in kwargs:'
p192
sI2125
S'                del kwargs[key]'
p193
sI2126
S''
sI2127
S'        if self.accepts(**kwargs):'
p194
sI2128
S"            if onsuccess == 'flash':"
p195
sI2129
S'                if next:'
p196
sI2130
S'                    current.session.flash = message_onsuccess'
p197
sI2131
S'                else:'
p198
ssg83
S"(self=<gluon.sqlhtml.SQLFORM object>, **kwargs={'dbio': True, 'request_vars': <Storage {'Category': '8', 'Description': 'EPIC'...-b159-2af02eb9aa5c', '_formname': 'news/create'}>, 'session': <Storage {'_user_agent': {'is_mobile': False, 'i...ser/4]': '444ee719-75af-4e30-9809-480e1a262f5c'}>})"
p199
sg85
S'validate'
p200
sa(dp201
g62
S'/home/akshita/IIIT/II Year/III semester/SSAD/web2py/gluon/sqlhtml.py'
p202
sg64
(dp203
S'self.vars.id'
p204
S'None'
p205
sS'fields'
p206
S"{'Category': '8', 'Description': 'EPIC', 'Heading': 'Which Start-Up Could Be the Next Big Thing?', 'Url': 'http://www.nytimes.com/interactive/2013/08/30/technology/startups-explorer.html?_r=0', 'likes': 100, 'posted_by': 'Ayush Negi', 'posted_on': datetime.datetime(2013, 8, 30, 4, 42, 20, 53025)}"
p207
sS'self'
p208
S'<gluon.sqlhtml.SQLFORM object>'
p209
sS'self.vars'
p210
S"<Storage {'Category': '8', 'Url': 'http://www.ny... Be the Next Big Thing?', 'Description': 'EPIC'}>"
p211
sS'self.table.insert'
p212
S'<bound method Table.insert of <Table news (id,Ca...ding,Url,Description,posted_by,posted_on,likes)>>'
p213
sS'self.table'
p214
S'<Table news (id,Category,Heading,Url,Description,posted_by,posted_on,likes)>'
p215
ssg70
I1571
sg71
(dp216
I1568
S'                        self.table._db(self.table._id == self.record['
p217
sI1569
S'                                       self.id_field_name]).update(**fields)'
p218
sI1570
S'                else:'
p219
sI1571
S'                    self.vars.id = self.table.insert(**fields)'
p220
sI1572
S'        self.accepted = ret'
p221
sI1573
S'        return ret'
p222
sI1574
S''
sI1575
S'    AUTOTYPES = {'
p223
sI1566
S'                    self.vars.id = self.record[self.id_field_name]'
p224
sI1567
S'                    if fields:'
p225
ssg83
S"(self=<gluon.sqlhtml.SQLFORM object>, request_vars=<Storage {'Category': '8', 'Description': 'EPIC'...-b159-2af02eb9aa5c', '_formname': 'news/create'}>, session=<Storage {'_user_agent': {'is_mobile': False, 'i...ser/4]': '444ee719-75af-4e30-9809-480e1a262f5c'}>, formname='news/create', keepvalues=False, onvalidation=None, dbio=True, hideerror=False, detect_record_change=False, **kwargs={})"
p226
sg85
S'accepts'
p227
sa(dp228
g62
S'/home/akshita/IIIT/II Year/III semester/SSAD/web2py/gluon/dal.py'
p229
sg64
(dp230
S'self._listify'
p231
S'<bound method Table._listify of <Table news (id,...ding,Url,Description,posted_by,posted_on,likes)>>'
p232
sS'fields'
p233
S"{'Category': '8', 'Description': 'EPIC', 'Heading': 'Which Start-Up Could Be the Next Big Thing?', 'Url': 'http://www.nytimes.com/interactive/2013/08/30/technology/startups-explorer.html?_r=0', 'likes': 100, 'posted_by': 'Ayush Negi', 'posted_on': datetime.datetime(2013, 8, 30, 4, 42, 20, 53025)}"
p234
sS'self'
p235
S'<Table news (id,Category,Heading,Url,Description,posted_by,posted_on,likes)>'
p236
sS'ret'
p237
g107
sS'self._db._adapter'
p238
S'<gluon.dal.SQLiteAdapter object>'
p239
sS'self._db._adapter.insert'
p240
S'<bound method SQLiteAdapter.insert of <gluon.dal.SQLiteAdapter object>>'
p241
sS'self._db'
p242
S'<DAL uri="sqlite://storage.sqlite">'
p243
ssg70
I8598
sg71
(dp244
I8593
S''
sI8594
S'    def insert(self, **fields):'
p245
sI8595
S'        fields = self._defaults(fields)'
p246
sI8596
S'        self._attempt_upload(fields)'
p247
sI8597
S'        if any(f(fields) for f in self._before_insert): return 0'
p248
sI8598
S'        ret =  self._db._adapter.insert(self, self._listify(fields))'
p249
sI8599
S'        if ret and self._after_insert:'
p250
sI8600
S'            fields = Row(fields)'
p251
sI8601
S'            [f(fields,ret) for f in self._after_insert]'
p252
sI8602
S'        return ret'
p253
ssg83
S"(self=<Table news (id,Category,Heading,Url,Description,posted_by,posted_on,likes)>, **fields={'Category': '8', 'Description': 'EPIC', 'Heading': 'Which Start-Up Could Be the Next Big Thing?', 'Url': 'http://www.nytimes.com/interactive/2013/08/30/technology/startups-explorer.html?_r=0', 'likes': 100, 'posted_by': 'Ayush Negi', 'posted_on': datetime.datetime(2013, 8, 30, 4, 42, 20, 53025)})"
p254
sg85
S'insert'
p255
sa(dp256
g62
S'/home/akshita/IIIT/II Year/III semester/SSAD/web2py/gluon/dal.py'
p257
sg64
(dp258
S'self._insert'
p259
S'<bound method SQLiteAdapter._insert of <gluon.dal.SQLiteAdapter object>>'
p260
sS'query'
p261
g107
sS'self'
p262
S'<gluon.dal.SQLiteAdapter object>'
p263
sS'fields'
p264
S"[(<gluon.dal.Field object>, '8'), (<gluon.dal.Field object>, 'EPIC'), (<gluon.dal.Field object>, 'http://www.nytimes.com/interactive/2013/08/30/technology/startups-explorer.html?_r=0'), (<gluon.dal.Field object>, 'Ayush Negi'), (<gluon.dal.Field object>, 100), (<gluon.dal.Field object>, 'Which Start-Up Could Be the Next Big Thing?'), (<gluon.dal.Field object>, datetime.datetime(2013, 8, 30, 4, 42, 20, 53025))]"
p265
sS'table'
p266
S'<Table news (id,Category,Heading,Url,Description,posted_by,posted_on,likes)>'
p267
ssg70
I1203
sg71
(dp268
I1198
S''
sI1199
S'    def _insert_empty(self, table):'
p269
sI1200
S"        return 'INSERT INTO %s DEFAULT VALUES;' % table"
p270
sI1201
S''
sI1202
S'    def insert(self, table, fields):'
p271
sI1203
S'        query = self._insert(table,fields)'
p272
sI1204
S'        try:'
p273
sI1205
S'            self.execute(query)'
p274
sI1206
S'        except Exception:'
p275
sI1207
S'            e = sys.exc_info()[1]'
p276
ssg83
S"(self=<gluon.dal.SQLiteAdapter object>, table=<Table news (id,Category,Heading,Url,Description,posted_by,posted_on,likes)>, fields=[(<gluon.dal.Field object>, '8'), (<gluon.dal.Field object>, 'EPIC'), (<gluon.dal.Field object>, 'http://www.nytimes.com/interactive/2013/08/30/technology/startups-explorer.html?_r=0'), (<gluon.dal.Field object>, 'Ayush Negi'), (<gluon.dal.Field object>, 100), (<gluon.dal.Field object>, 'Which Start-Up Could Be the Next Big Thing?'), (<gluon.dal.Field object>, datetime.datetime(2013, 8, 30, 4, 42, 20, 53025))])"
p277
sg85
g255
sa(dp278
g62
S'/home/akshita/IIIT/II Year/III semester/SSAD/web2py/gluon/dal.py'
p279
sg64
(dp280
S'f'
g107
sS'fields'
p281
S"[(<gluon.dal.Field object>, '8'), (<gluon.dal.Field object>, 'EPIC'), (<gluon.dal.Field object>, 'http://www.nytimes.com/interactive/2013/08/30/technology/startups-explorer.html?_r=0'), (<gluon.dal.Field object>, 'Ayush Negi'), (<gluon.dal.Field object>, 100), (<gluon.dal.Field object>, 'Which Start-Up Could Be the Next Big Thing?'), (<gluon.dal.Field object>, datetime.datetime(2013, 8, 30, 4, 42, 20, 53025))]"
p282
sS'self'
p283
S'<gluon.dal.SQLiteAdapter object>'
p284
sS'values'
p285
g107
sS'v'
g107
sS'self.expand'
p286
S'<bound method SQLiteAdapter.expand of <gluon.dal.SQLiteAdapter object>>'
p287
ssg70
I1194
sg71
(dp288
I1189
S"            logfile.write('success!\\n')"
p289
sI1190
S''
sI1191
S'    def _insert(self, table, fields):'
p290
sI1192
S'        if fields:'
p291
sI1193
S"            keys = ','.join(f.name for f, v in fields)"
p292
sI1194
S"            values = ','.join(self.expand(v, f.type) for f, v in fields)"
p293
sI1195
S"            return 'INSERT INTO %s(%s) VALUES (%s);' % (table, keys, values)"
p294
sI1196
S'        else:'
p295
sI1197
S'            return self._insert_empty(table)'
p296
sI1198
S''
ssg83
S"(self=<gluon.dal.SQLiteAdapter object>, table=<Table news (id,Category,Heading,Url,Description,posted_by,posted_on,likes)>, fields=[(<gluon.dal.Field object>, '8'), (<gluon.dal.Field object>, 'EPIC'), (<gluon.dal.Field object>, 'http://www.nytimes.com/interactive/2013/08/30/technology/startups-explorer.html?_r=0'), (<gluon.dal.Field object>, 'Ayush Negi'), (<gluon.dal.Field object>, 100), (<gluon.dal.Field object>, 'Which Start-Up Could Be the Next Big Thing?'), (<gluon.dal.Field object>, datetime.datetime(2013, 8, 30, 4, 42, 20, 53025))])"
p297
sg85
S'_insert'
p298
sa(dp299
g62
S'/home/akshita/IIIT/II Year/III semester/SSAD/web2py/gluon/dal.py'
p300
sg64
(dp301
S'f'
S'<gluon.dal.Field object>'
p302
sS'fields'
p303
g107
sS'self'
p304
S'<gluon.dal.SQLiteAdapter object>'
p305
sS'f.type'
p306
S"'reference auth_user'"
p307
sS'values'
p308
g107
sS'v'
S"'Ayush Negi'"
p309
sS'self.expand'
p310
S'<bound method SQLiteAdapter.expand of <gluon.dal.SQLiteAdapter object>>'
p311
ssg70
I1194
sg71
(dp312
I1189
S"            logfile.write('success!\\n')"
p313
sI1190
S''
sI1191
S'    def _insert(self, table, fields):'
p314
sI1192
S'        if fields:'
p315
sI1193
S"            keys = ','.join(f.name for f, v in fields)"
p316
sI1194
S"            values = ','.join(self.expand(v, f.type) for f, v in fields)"
p317
sI1195
S"            return 'INSERT INTO %s(%s) VALUES (%s);' % (table, keys, values)"
p318
sI1196
S'        else:'
p319
sI1197
S'            return self._insert_empty(table)'
p320
sI1198
S''
ssg83
S"((f=<gluon.dal.Field object>, v='Ayush Negi'))"
p321
sg85
S'<genexpr>'
p322
sa(dp323
g62
S'/home/akshita/IIIT/II Year/III semester/SSAD/web2py/gluon/dal.py'
p324
sg64
(dp325
S'builtinstr'
p326
S"<type 'str'>"
p327
sS'field_type'
p328
S"'reference auth_user'"
p329
sS'self'
p330
S'<gluon.dal.SQLiteAdapter object>'
p331
sS'expression'
p332
S"'Ayush Negi'"
p333
sS'self.represent'
p334
S'<bound method SQLiteAdapter.represent of <gluon.dal.SQLiteAdapter object>>'
p335
ssg70
I1376
sg71
(dp336
I1376
S'            return str(self.represent(expression,field_type))'
p337
sI1377
S'        elif isinstance(expression,(list,tuple)):'
p338
sI1378
S"            return ','.join(self.represent(item,field_type) \\"
p339
sI1379
S'                                for item in expression)'
p340
sI1380
S'        elif isinstance(expression, bool):'
p341
sI1371
S'                    op=op[:-1]'
p342
sI1372
S"                return '(%s)' % op"
p343
sI1373
S'            else:'
p344
sI1374
S'                return op()'
p345
sI1375
S'        elif field_type:'
p346
ssg83
S"(self=<gluon.dal.SQLiteAdapter object>, expression='Ayush Negi', field_type='reference auth_user')"
p347
sg85
S'expand'
p348
sa(dp349
g62
S'/home/akshita/IIIT/II Year/III semester/SSAD/web2py/gluon/dal.py'
p350
sg64
(dp351
S'builtinstr'
p352
S"<type 'str'>"
p353
sS'builtinlong'
p354
S"<type 'long'>"
p355
sS'obj'
p356
S"'Ayush Negi'"
p357
ssg70
I1830
sg71
(dp358
I1825
S"        elif field_is_type('reference'): # reference"
p359
sI1826
S"            if fieldtype.find('.')>0:"
p360
sI1827
S'                return repr(obj)'
p361
sI1828
S'            elif isinstance(obj, (Row, Reference)):'
p362
sI1829
S"                return str(obj['id'])"
p363
sI1830
S'            return str(long(obj))'
p364
sI1831
S"        elif fieldtype == 'double':"
p365
sI1832
S'            return repr(float(obj))'
p366
sI1833
S'        if isinstance(obj, unicode):'
p367
sI1834
S'            obj = obj.encode(self.db_codec)'
p368
ssg83
S"(self=<gluon.dal.SQLiteAdapter object>, obj='Ayush Negi', fieldtype='reference auth_user')"
p369
sg85
S'represent'
p370
sasS'pyver'
p371
S'Python 2.7.3: /usr/bin/python (prefix: /usr)'
p372
sS'session'
p373
g57
(S'sc\t\x00\x00<div><table><tr><td style="font-weight:bold;vertical-align:top">auth</td><td valign="top">:</td><td><div><table><tr><td style="font-weight:bold;vertical-align:top">expiration</td><td valign="top">:</td><td><div>3600</div></td></tr><tr><td style="font-weight:bold;vertical-align:top">hmac_key</td><td valign="top">:</td><td><div>c6f5a563-8112-4eba-8210-7381df17231e</div></td></tr><tr><td style="font-weight:bold;vertical-align:top">last_visit</td><td valign="top">:</td><td><div>datetime.datetime(2013, 8, 30, 4, 41, 17, 875914)</div></td></tr><tr><td style="font-weight:bold;vertical-align:top">user</td><td valign="top">:</td><td><div><table><tr><td style="font-weight:bold;vertical-align:top">email</td><td valign="top">:</td><td><div>ayu@gmail.com</div></td></tr><tr><td style="font-weight:bold;vertical-align:top">first_name</td><td valign="top">:</td><td><div>Ayush</div></td></tr><tr><td style="font-weight:bold;vertical-align:top">id</td><td valign="top">:</td><td><div>10L</div></td></tr><tr><td style="font-weight:bold;vertical-align:top">last_name</td><td valign="top">:</td><td><div>Negi</div></td></tr><tr><td style="font-weight:bold;vertical-align:top">likes</td><td valign="top">:</td><td><div><table></table></div></td></tr><tr><td style="font-weight:bold;vertical-align:top">news_id</td><td valign="top">:</td><td><div><table></table></div></td></tr><tr><td style="font-weight:bold;vertical-align:top">registration_id</td><td valign="top">:</td><td><div></div></td></tr><tr><td style="font-weight:bold;vertical-align:top">registration_key</td><td valign="top">:</td><td><div></div></td></tr><tr><td style="font-weight:bold;vertical-align:top">reset_password_key</td><td valign="top">:</td><td><div></div></td></tr></table></div></td></tr><tr><td style="font-weight:bold;vertical-align:top">user_groups</td><td valign="top">:</td><td><div><table><tr><td style="font-weight:bold;vertical-align:top">10</td><td valign="top">:</td><td><div>user_10</div></td></tr></table></div></td></tr></table></div></td></tr><tr><td style="font-weight:bold;vertical-align:top">flash</td><td valign="top">:</td><td><div>None</div></td></tr><tr><td style="font-weight:bold;vertical-align:top">last_orderby</td><td valign="top">:</td><td><div>None</div></td></tr><tr><td style="font-weight:bold;vertical-align:top">last_query</td><td valign="top">:</td><td><div>db.news.id&gt;0</div></td></tr></table></div>'
tRp374
sS'etype'
p375
S"<type 'exceptions.ValueError'>"
p376
sS'date'
p377
S'Fri Aug 30 04:42:22 2013'
p378
sS'response'
p379
g57
(S's\x91-\x00\x00<div><table><tr><td style="font-weight:bold;vertical-align:top">body</td><td valign="top">:</td><td><div>&lt;cStringIO.StringO object at 0x7fc418372ea0&gt;</div></td></tr><tr><td style="font-weight:bold;vertical-align:top">cookies</td><td valign="top">:</td><td><div><table><tr><td style="font-weight:bold;vertical-align:top">session_id_nouvelles_en_ligne</td><td valign="top">:</td><td><div>127.0.0.1-7e484384-59ee-4d15-ac06-3487b6021fe5<table><tr><td style="font-weight:bold;vertical-align:top">comment</td><td valign="top">:</td><td><div></div></td></tr><tr><td style="font-weight:bold;vertical-align:top">domain</td><td valign="top">:</td><td><div></div></td></tr><tr><td style="font-weight:bold;vertical-align:top">expires</td><td valign="top">:</td><td><div></div></td></tr><tr><td style="font-weight:bold;vertical-align:top">httponly</td><td valign="top">:</td><td><div></div></td></tr><tr><td style="font-weight:bold;vertical-align:top">max-age</td><td valign="top">:</td><td><div></div></td></tr><tr><td style="font-weight:bold;vertical-align:top">path</td><td valign="top">:</td><td><div>/</div></td></tr><tr><td style="font-weight:bold;vertical-align:top">secure</td><td valign="top">:</td><td><div></div></td></tr><tr><td style="font-weight:bold;vertical-align:top">version</td><td valign="top">:</td><td><div></div></td></tr></table></div></td></tr></table></div></td></tr><tr><td style="font-weight:bold;vertical-align:top">delimiters</td><td valign="top">:</td><td><div><table><tr><td><div>{{</div></td></tr><tr><td><div>}}</div></td></tr></table></div></td></tr><tr><td style="font-weight:bold;vertical-align:top">files</td><td valign="top">:</td><td><div><table></table></div></td></tr><tr><td style="font-weight:bold;vertical-align:top">flash</td><td valign="top">:</td><td><div></div></td></tr><tr><td style="font-weight:bold;vertical-align:top">generic_patterns</td><td valign="top">:</td><td><div><table><tr><td><div>*</div></td></tr></table></div></td></tr><tr><td style="font-weight:bold;vertical-align:top">google_analytics_id</td><td valign="top">:</td><td><div>None</div></td></tr><tr><td style="font-weight:bold;vertical-align:top">headers</td><td valign="top">:</td><td><div><table><tr><td style="font-weight:bold;vertical-align:top">X-Powered-By</td><td valign="top">:</td><td><div>web2py</div></td></tr></table></div></td></tr><tr><td style="font-weight:bold;vertical-align:top">logo</td><td valign="top">:</td><td><div><a class="brand" href="http://www.web2py.com/"><b>web<span>2</span>py</b>&trade;&nbsp;</a></div></td></tr><tr><td style="font-weight:bold;vertical-align:top">menu</td><td valign="top">:</td><td><div><table><tr><td><div><table><tr><td><div>Home</div></td></tr><tr><td><div>False</div></td></tr><tr><td><div>/NOUVELLES_EN_LIGNE/default/index</div></td></tr><tr><td><div><table></table></div></td></tr></table></div></td></tr><tr><td><div><table><tr><td><div><span class="highlighted">web2py</span></div></td></tr><tr><td><div>False</div></td></tr><tr><td><div>http://web2py.com</div></td></tr><tr><td><div><table><tr><td><div><table><tr><td><div>My Sites</div></td></tr><tr><td><div>False</div></td></tr><tr><td><div>/admin/default/site</div></td></tr></table></div></td></tr><tr><td><div><table><tr><td><div>This App</div></td></tr><tr><td><div>False</div></td></tr><tr><td><div>/admin/default/design/NOUVELLES_EN_LIGNE</div></td></tr><tr><td><div>[(&lt;lazyT &#x27;Controller&#x27;&gt;, False, &#x27;/admin/default/edit/NOUVELLES_EN_LIGNE/controllers/default.py&#x27;), (&lt;lazyT &#x27;View&#x27;&gt;, False, &#x27;/admin/default/edit/NOUVELLES_EN_LIGNE/views/default/post.html&#x27;), (&lt;lazyT &#x27;Layout&#x27;&gt;, False, &#x27;/admin/default/edit/NOUVELLES_EN_LIGNE/views/layout.html&#x27;), (&lt;lazyT &#x27;Stylesheet&#x27;&gt;, False, &#x27;/admin/default/edit/NOUVELLES_EN_LIGNE/static/css/web2py.css&#x27;), (&lt;lazyT &#x27;DB Model&#x27;&gt;, False, &#x27;/admin/default/edit/NOUVELLES_EN_LIGNE/models/db.py&#x27;), (&lt;lazyT &#x27;Menu Model&#x27;&gt;, False, &#x27;/admin/default/edit/NOUVELLES_EN_LIGNE/models/menu.py&#x27;), (&lt;lazyT &#x27;Database&#x27;&gt;, False, &#x27;/NOUVELLES_EN_LIGNE/appadmin/index&#x27;), (&lt;lazyT &#x27;Errors&#x27;&gt;, False, &#x27;/admin/default/errors/NOUVELLES_EN_LIGNE&#x27;), (&lt;lazyT &#x27;About&#x27;&gt;, False, &#x27;/admin/default/about/NOUVELLES_EN_LIGNE&#x27;)]</div></td></tr></table></div></td></tr><tr><td><div><table><tr><td><div>web2py.com</div></td></tr><tr><td><div>False</div></td></tr><tr><td><div>http://www.web2py.com</div></td></tr><tr><td><div>[(&lt;lazyT &#x27;Download&#x27;&gt;, False, &#x27;http://www.web2py.com/examples/default/download&#x27;), (&lt;lazyT &#x27;Support&#x27;&gt;, False, &#x27;http://www.web2py.com/examples/default/support&#x27;), (&lt;lazyT &#x27;Demo&#x27;&gt;, False, &#x27;http://web2py.com/demo_admin&#x27;), (&lt;lazyT &#x27;Quick Examples&#x27;&gt;, False, &#x27;http://web2py.com/examples/default/examples&#x27;), (&lt;lazyT &#x27;FAQ&#x27;&gt;, False, &#x27;http://web2py.com/AlterEgo&#x27;), (&lt;lazyT &#x27;Videos&#x27;&gt;, False, &#x27;http://www.web2py.com/examples/default/videos/&#x27;), (&lt;lazyT &#x27;Free Applications&#x27;&gt;, False, &#x27;http://web2py.com/appliances&#x27;), (&lt;lazyT &#x27;Plugins&#x27;&gt;, False, &#x27;http://web2py.com/plugins&#x27;), (&lt;lazyT &#x27;Layouts&#x27;&gt;, False, &#x27;http://web2py.com/layouts&#x27;), (&lt;lazyT &#x27;Recipes&#x27;&gt;, False, &#x27;http://web2pyslices.com/&#x27;), (&lt;lazyT &#x27;Semantic&#x27;&gt;, False, &#x27;http://web2py.com/semantic&#x27;)]</div></td></tr></table></div></td></tr><tr><td><div><table><tr><td><div>Documentation</div></td></tr><tr><td><div>False</div></td></tr><tr><td><div>http://www.web2py.com/book</div></td></tr><tr><td><div>[(&lt;lazyT &#x27;Preface&#x27;&gt;, False, &#x27;http://www.web2py.com/book/default/chapter/00&#x27;), (&lt;lazyT &#x27;Introduction&#x27;&gt;, False, &#x27;http://www.web2py.com/book/default/chapter/01&#x27;), (&lt;lazyT &#x27;Python&#x27;&gt;, False, &#x27;http://www.web2py.com/book/default/chapter/02&#x27;), (&lt;lazyT &#x27;Overview&#x27;&gt;, False, &#x27;http://www.web2py.com/book/default/chapter/03&#x27;), (&lt;lazyT &#x27;The Core&#x27;&gt;, False, &#x27;http://www.web2py.com/book/default/chapter/04&#x27;), (&lt;lazyT &#x27;The Views&#x27;&gt;, False, &#x27;http://www.web2py.com/book/default/chapter/05&#x27;), (&lt;lazyT &#x27;Database&#x27;&gt;, False, &#x27;http://www.web2py.com/book/default/chapter/06&#x27;), (&lt;lazyT &#x27;Forms and Validators&#x27;&gt;, False, &#x27;http://www.web2py.com/book/default/chapter/07&#x27;), (&lt;lazyT &#x27;Email and SMS&#x27;&gt;, False, &#x27;http://www.web2py.com/book/default/chapter/08&#x27;), (&lt;lazyT &#x27;Access Control&#x27;&gt;, False, &#x27;http://www.web2py.com/book/default/chapter/09&#x27;), (&lt;lazyT &#x27;Services&#x27;&gt;, False, &#x27;http://www.web2py.com/book/default/chapter/10&#x27;), (&lt;lazyT &#x27;Ajax Recipes&#x27;&gt;, False, &#x27;http://www.web2py.com/book/default/chapter/11&#x27;), (&lt;lazyT &#x27;Components and Plugins&#x27;&gt;, False, &#x27;http://www.web2py.com/book/default/chapter/12&#x27;), (&lt;lazyT &#x27;Deployment Recipes&#x27;&gt;, False, &#x27;http://www.web2py.com/book/default/chapter/13&#x27;), (&lt;lazyT &#x27;Other Recipes&#x27;&gt;, False, &#x27;http://www.web2py.com/book/default/chapter/14&#x27;), (&lt;lazyT &#x27;Buy this book&#x27;&gt;, False, &#x27;http://stores.lulu.com/web2py&#x27;)]</div></td></tr></table></div></td></tr><tr><td><div><table><tr><td><div>Community</div></td></tr><tr><td><div>False</div></td></tr><tr><td><div>None</div></td></tr><tr><td><div>[(&lt;lazyT &#x27;Groups&#x27;&gt;, False, &#x27;http://www.web2py.com/examples/default/usergroups&#x27;), (&lt;lazyT &#x27;Twitter&#x27;&gt;, False, &#x27;http://twitter.com/web2py&#x27;), (&lt;lazyT &#x27;Live Chat&#x27;&gt;, False, &#x27;http://webchat.freenode.net/?channels=web2py&#x27;)]</div></td></tr></table></div></td></tr><tr><td><div><table><tr><td><div>Plugins</div></td></tr><tr><td><div>False</div></td></tr><tr><td><div>None</div></td></tr><tr><td><div>[(&#x27;plugin_wiki&#x27;, False, &#x27;http://web2py.com/examples/default/download&#x27;), (&lt;lazyT &#x27;Other Plugins&#x27;&gt;, False, &#x27;http://web2py.com/plugins&#x27;), (&lt;lazyT &#x27;Layout Plugins&#x27;&gt;, False, &#x27;http://web2py.com/layouts&#x27;)]</div></td></tr></table></div></td></tr></table></div></td></tr></table></div></td></tr></table></div></td></tr><tr><td style="font-weight:bold;vertical-align:top">meta</td><td valign="top">:</td><td><div><table><tr><td style="font-weight:bold;vertical-align:top">author</td><td valign="top">:</td><td><div>Your Name &lt;you@example.com&gt;</div></td></tr><tr><td style="font-weight:bold;vertical-align:top">description</td><td valign="top">:</td><td><div>a cool new app</div></td></tr><tr><td style="font-weight:bold;vertical-align:top">generator</td><td valign="top">:</td><td><div>Web2py Web Framework</div></td></tr><tr><td style="font-weight:bold;vertical-align:top">keywords</td><td valign="top">:</td><td><div>web2py, python, framework</div></td></tr></table></div></td></tr><tr><td style="font-weight:bold;vertical-align:top">models_to_run</td><td valign="top">:</td><td><div><table><tr><td><div>^\\w+\\.py$</div></td></tr><tr><td><div>^default/\\w+\\.py$</div></td></tr><tr><td><div>^default/post/\\w+\\.py$</div></td></tr></table></div></td></tr><tr><td style="font-weight:bold;vertical-align:top">postprocessing</td><td valign="top">:</td><td><div><table></table></div></td></tr><tr><td style="font-weight:bold;vertical-align:top">session_cookie_expires</td><td valign="top">:</td><td><div>None</div></td></tr><tr><td style="font-weight:bold;vertical-align:top">session_data_name</td><td valign="top">:</td><td><div>session_data_nouvelles_en_ligne</div></td></tr><tr><td style="font-weight:bold;vertical-align:top">session_file</td><td valign="top">:</td><td><div>&lt;open file &#x27;/home/akshita/IIIT/II Year/III semester/SSAD/web2py/applications/NOUVELLES_EN_LIGNE/sessions/127.0.0.1-7e484384-59ee-4d15-ac06-3487b6021fe5&#x27;, mode &#x27;rb+&#x27; at 0x7fc4344c66f0&gt;</div></td></tr><tr><td style="font-weight:bold;vertical-align:top">session_filename</td><td valign="top">:</td><td><div>/home/akshita/IIIT/II Year/III semester/SSAD/web2py/applications/NOUVELLES_EN_LIGNE/sessions/127.0.0.1-7e484384-59ee-4d15-ac06-3487b6021fe5</div></td></tr><tr><td style="font-weight:bold;vertical-align:top">session_id</td><td valign="top">:</td><td><div>127.0.0.1-7e484384-59ee-4d15-ac06-3487b6021fe5</div></td></tr><tr><td style="font-weight:bold;vertical-align:top">session_id_name</td><td valign="top">:</td><td><div>session_id_nouvelles_en_ligne</div></td></tr><tr><td style="font-weight:bold;vertical-align:top">session_locked</td><td valign="top">:</td><td><div>True</div></td></tr><tr><td style="font-weight:bold;vertical-align:top">session_new</td><td valign="top">:</td><td><div>False</div></td></tr><tr><td style="font-weight:bold;vertical-align:top">session_storage_type</td><td valign="top">:</td><td><div>file</div></td></tr><tr><td style="font-weight:bold;vertical-align:top">status</td><td valign="top">:</td><td><div>200</div></td></tr><tr><td style="font-weight:bold;vertical-align:top">subtitle</td><td valign="top">:</td><td><div>customize me!</div></td></tr><tr><td style="font-weight:bold;vertical-align:top">title</td><td valign="top">:</td><td><div>Nouvelles En Ligne</div></td></tr><tr><td style="font-weight:bold;vertical-align:top">view</td><td valign="top">:</td><td><div>default/post.html</div></td></tr></table></div>'
tRp380
sS'locals'
p381
(dp382
S'obj'
p383
S"'Ayush Negi'"
p384
sS'self'
p385
S'<gluon.dal.SQLiteAdapter object>'
p386
sS'field_is_type'
p387
S'<built-in method startswith of str object>'
p388
sS'r'
S'None'
p389
sS'fieldtype'
p390
S"'reference auth_user'"
p391
sssS'traceback'
p392
S'Traceback (most recent call last):\n  File "/home/akshita/IIIT/II Year/III semester/SSAD/web2py/gluon/restricted.py", line 212, in restricted\n    exec ccode in environment\n  File "/home/akshita/IIIT/II Year/III semester/SSAD/web2py/applications/NOUVELLES_EN_LIGNE/controllers/default.py", line 263, in <module>\n  File "/home/akshita/IIIT/II Year/III semester/SSAD/web2py/gluon/globals.py", line 194, in <lambda>\n    self._caller = lambda f: f()\n  File "/home/akshita/IIIT/II Year/III semester/SSAD/web2py/gluon/tools.py", line 3022, in f\n    return action(*a, **b)\n  File "/home/akshita/IIIT/II Year/III semester/SSAD/web2py/applications/NOUVELLES_EN_LIGNE/controllers/default.py", line 142, in post\n    if form.process().accepted:\n  File "/home/akshita/IIIT/II Year/III semester/SSAD/web2py/gluon/html.py", line 2188, in process\n    self.validate(**kwargs)\n  File "/home/akshita/IIIT/II Year/III semester/SSAD/web2py/gluon/html.py", line 2127, in validate\n    if self.accepts(**kwargs):\n  File "/home/akshita/IIIT/II Year/III semester/SSAD/web2py/gluon/sqlhtml.py", line 1571, in accepts\n    self.vars.id = self.table.insert(**fields)\n  File "/home/akshita/IIIT/II Year/III semester/SSAD/web2py/gluon/dal.py", line 8598, in insert\n    ret =  self._db._adapter.insert(self, self._listify(fields))\n  File "/home/akshita/IIIT/II Year/III semester/SSAD/web2py/gluon/dal.py", line 1203, in insert\n    query = self._insert(table,fields)\n  File "/home/akshita/IIIT/II Year/III semester/SSAD/web2py/gluon/dal.py", line 1194, in _insert\n    values = \',\'.join(self.expand(v, f.type) for f, v in fields)\n  File "/home/akshita/IIIT/II Year/III semester/SSAD/web2py/gluon/dal.py", line 1194, in <genexpr>\n    values = \',\'.join(self.expand(v, f.type) for f, v in fields)\n  File "/home/akshita/IIIT/II Year/III semester/SSAD/web2py/gluon/dal.py", line 1376, in expand\n    return str(self.represent(expression,field_type))\n  File "/home/akshita/IIIT/II Year/III semester/SSAD/web2py/gluon/dal.py", line 1830, in represent\n    return str(long(obj))\nValueError: invalid literal for long() with base 10: \'Ayush Negi\'\n'
p393
s.