(dp1
S'output'
p2
S'Unable to open included view file: /home/akshita/IIIT/II Year/III semester/SSAD/web2py/applications/NOUVELLES_EN_LIGNE/views/layouts/web2py_ajax.html'
p3
sS'layer'
p4
S"'layout.html'"
p5
sS'code'
p6
S'<html lang="{{=T.accepted_language or \'en\'}}" class="no-js"><!-- no-js need it for modernzr -->\n  <head>\n      \n      <meta charset="utf-8" />\t\n          <!-- www.phpied.com/conditional-comments-block-downloads/ -->\n\t      <!--[if IE]><![endif]-->\n\t          <!-- Always force latest IE rendering engine\n\t\t  (even in intranet) & Chrome Frame\n\t\t  Remove this if you use the .htaccess -->\n\t\t      <meta http-equiv="X-UA-Compatible" content="IE=edge,chrome=1">\n\t\t          \n\t\t          <title>{{=response.title or request.application}}</title>\n\t\t\t      \n\t\t\t      <!-- http://dev.w3.org/html5/markup/meta.name.html -->\n\t\t\t          <meta name="application-name" content="{{=request.application}}" />\t\n\t\t\t\t      \n\t\t\t\t      <!-- Speaking of Google, don\'t forget to set your site up:\n\t\t\t\t      http://google.com/webmasters -->\n\t\t\t\t          <meta name="google-site-verification" content="" />\n\t\t\t\t\t      \n\t\t\t\t\t      <!-- Mobile Viewport Fix\n\t\t\t\t\t      j.mp/mobileviewport & davidbcalhoun.com/2010/viewport-metatag\n\t\t\t\t\t      device-width: Occupy full width of the screen in its current orientation\n\t\t\t\t\t      initial-scale = 1.0 retains dimensions instead of zooming out if page height > device height\n\t\t\t\t\t      maximum-scale = 1.0 retains dimensions instead of zooming in if page width < device width\n\t\t\t\t\t      -->\n\t\t\t\t\t          <meta name="viewport" content="width=device-width; initial-scale=1.0; maximum-scale=1.0;">\n\t\t\t\t\t\t      \n\t\t\t\t\t\t      <!-- Place favicon.ico and apple-touch-icon.png in the root of your domain and delete these references -->\n\t\t\t\t\t\t          <link rel="shortcut icon" href="{{=URL(\'static\',\'favicon.ico\')}}" type="image/x-icon">\n\t\t\t\t\t\t\t      <link rel="apple-touch-icon" href="{{=URL(\'static\',\'favicon.png\')}}">\n\n\t\t\t\t\t\t\t          <!-- For the less-enabled mobile browsers like Opera Mini -->\n\t\t\t\t\t\t\t\t      <link rel="stylesheet" media="handheld" href="{{=URL(\'static\',\'css/handheld.css\')}}">\n\t\t\t\t\t\t\t\t          \n\t\t\t\t\t\t\t\t          <!-- All JavaScript at the bottom, except for Modernizr which enables HTML5 elements & feature detects -->\n\t\t\t\t\t\t\t\t\t      <script src="{{=URL(\'static\',\'js/modernizr-1.7.min.js\')}}"></script>\n\t\t\t\t\t\t\t\t\t          \n\t\t\t\t\t\t\t\t\t          {{#------ require CSS and JS files for this page (read info in base.css) ------}}\n\t\t\t\t\t\t\t\t\t\t      {{response.files.append(URL(\'static\',\'css/base.css\'))}}\n\t\t\t\t\t\t\t\t\t\t          {{response.files.append(URL(\'static\',\'css/superfish.css\'))}}\n\t\t\t\t\t\t\t\t\t\t\t      {{response.files.append(URL(\'static\',\'js/superfish.js\'))}}\n\t\t\t\t\t\t\t\t\t\t\t          {{#------ include web2py specific js code (jquery, calendar, form stuff) ------}}\n\t\t\t\t\t\t\t\t\t\t\t\t      {{include \'layouts/web2py_ajax.html\'}}\n\n\t\t\t\t\t\t\t\t\t\t\t\t          {{\n\t\t\t\t\t\t\t\t\t\t\t\t\t\t       #using sidebars need to know what sidebar you want to use\n\t\t\t\t\t\t\t\t\t\t\t\t\t\t       #prior of using it, because of static width size of content, you can use\n\t\t\t\t\t\t\t\t\t\t\t\t\t\t       #left_sidebar, right_sidebar, both or none (False left and right)\n\t\t\t\t\t\t\t\t\t\t\t\t\t\t       left_sidebar_enabled = globals().get(\'left_sidebar_enabled\',False)\n\t\t\t\t\t\t\t\t\t\t\t\t\t\t\t           right_sidebar_enabled = globals().get(\'right_sidebar_enabled\',False)\n\t\t\t\t\t\t\t\t\t\t\t\t\t\t\t\t       if left_sidebar_enabled and right_sidebar_enabled: width_content=\'63%\'\n\t\t\t\t\t\t\t\t\t\t\t\t\t\t\t\t\t           elif left_sidebar_enabled != right_sidebar_enabled: width_content=\'740px\'\n\t\t\t\t\t\t\t\t\t\t\t\t\t\t\t\t\t\t\t       else: width_content=\'100%\'\n\t\t\t\t\t\t\t\t\t\t\t\t\t\t\t\t\t\t\t\t           if left_sidebar_enabled: left_sidebar_style = \'style="display: block;"\'\n\t\t\t\t\t\t\t\t\t\t\t\t\t\t\t\t\t\t\t\t\t\t       else: left_sidebar_style = \'style="display: none;"\'\n\t\t\t\t\t\t\t\t\t\t\t\t\t\t\t\t\t\t\t\t\t\t\t           if right_sidebar_enabled: right_sidebar_style = \'style="display: block;"\'\n\t\t\t\t\t\t\t\t\t\t\t\t\t\t\t\t\t\t\t\t\t\t\t\t\t       else: right_sidebar_style = \'style="display: none;"\'\n\t\t\t\t\t\t\t\t\t\t\t\t\t\t\t\t\t\t\t\t\t\t\t\t\t\t           style_content = \'style="width: %s"\' % width_content\n\t\t\t\t\t\t\t\t\t\t\t\t\t\t\t\t\t\t\t\t\t\t\t\t\t\t\t\t       }}\n  </head>\n    \n    <!-- paulirish.com/2008/conditional-stylesheets-vs-css-hacks-answer-neither/ -->\t\n      <!--[if lt IE 7 ]> <body class="ie6"> <![endif]-->\n        <!--[if IE 7 ]> <body class="ie7"> <![endif]-->\n\t  <!--[if IE 8 ]> <body class="ie8"> <![endif]-->\n\t    <!--[if IE 9 ]> <body class="ie9"> <![endif]-->\n\t      <!--[if (gt IE 9)|!(IE)]><!--> <body> <!--<![endif]-->\n\t          \n\t          <div class="flash">{{=response.flash or \'\'}}</div> <!-- notification div -->\n\t\t      \n\t\t      <div id="container">\t\n\t\t            \n\t\t            <div id="wrapper">\t\n\n\t\t\t    <div id="header"> <!-- header and login nav -->\n{{block header}} <!-- this is default header -->\n{{try:}}{{=auth.navbar(action=URL(\'default\',\'user\'))}}{{except:pass}}\n<h1><span id="appname">{{=request.application.capitalize()}}</span>App</h1>\n<div style="clear: both;"></div><!-- Clear the divs -->\n{{end}}\n</div><!-- header -->\n\n<div id="statusbar"><!-- statusbar is menu zone -->\n{{block statusbar}} <!-- this is default statusbar -->\n{{#------ superfish menu ------}}\n{{=MENU(response.menu,_class=\'sf-menu\')}}\n<script type="text/javascript">\njQuery(document).ready(function(){\n\t\tjQuery(\'ul.sf-menu\').superfish();});\n</script>\n<div style="clear: both;"></div><!-- Clear the divs -->\t\n{{end}}\n</div><!-- statusbar -->\n\n<div id="page"> <!-- Here my central body -->\t\n\n{{if left_sidebar_enabled:}}\n          <div id="left_sidebar" {{=XML(left_sidebar_style)}} >\n\t              <div style="padding: 4px;">\n{{block left_sidebar}}Content Left Sidebar{{end}}\n            </div>\n\t              </div><!-- left_sidebar -->\n{{pass}}\n\n<!-- content -->\n<div id="content" {{=XML(style_content)}} >\n{{include}}\n</div>\n<!-- content -->\n\n{{if right_sidebar_enabled:}}\n          <div id="right_sidebar" {{=XML(right_sidebar_style)}} >\n\t              <div style="padding: 4px;">\n\t\t                    {{block right_sidebar}}Content Right Sidebar{{end}}\n\t\t\t\t                </div>\n\t\t\t\t\t\t</div><!-- right_sidebar -->\n\t\t\t\t\t\t          {{pass}}\n\n\n\t\t\t\t\t\t\t  <div style="clear: both;"></div><!-- Clear the divs -->\n\n\t\t\t\t\t\t\t  </div><!-- page -->\t\n\n\t\t\t\t\t\t\t  <div id="footer">\n{{block footer}} <!-- this is default footer -->\n<a href="http://www.web2py.com/" style="float: left; padding-right: 6px;">\n<img src="{{=URL(\'static\',\'images/poweredby.png\')}}"/>\n</a>\n{{=T(\'Copyright\')}} &#169; 2010\n<div style="clear: both;"></div><!-- Clear the divs -->\n{{end}}\n\n</div><!-- footer -->\t\n      </div><!-- wrapper -->\n          </div><!-- container -->\t\n\t      \n\t      <!--[if lt IE 7 ]>\n\t      <script src="{{=URL(\'static\',\'js/dd_belatedpng.js\')}}"></script>\n\t      <script> DD_belatedPNG.fix(\'img, .png_bg\'); //fix any <img> or .png_bg background-images </script>\n\t      <![endif]-->\n\t          \n\t          <!-- asynchronous google analytics: mathiasbynens.be/notes/async-analytics-snippet\n\t\t  change the UA-XXXXX-X to be your site\'s ID -->\n\t\t      <!--\n\t\t      <script>\n\t\t      var _gaq = [[\'_setAccount\', \'UA-XXXXX-X\'], [\'_trackPageview\']];\n\t\t      (function(d, t) {\n\t\t       var g = d.createElement(t),\n\t\t       s = d.getElementsByTagName(t)[0];\n\t\t       g.async = true;\n\t\t       g.src = \'//www.google-analytics.com/ga.js\';\n\t\t       s.parentNode.insertBefore(g, s);\n\t\t       })(document, \'script\');\n</script>\n-->\n  </body>\n  </html>\n'
p7
sS'snapshot'
p8
(dp9
S'exception'
p10
(dp11
S'__getslice__'
p12
S"<method-wrapper '__getslice__' of exceptions.IOError object>"
p13
sS'__str__'
p14
S"<method-wrapper '__str__' of exceptions.IOError object>"
p15
sS'__reduce__'
p16
S'<built-in method __reduce__ of exceptions.IOError object>'
p17
sS'__dict__'
p18
S'{}'
p19
sS'__sizeof__'
p20
S'<built-in method __sizeof__ of exceptions.IOError object>'
p21
sS'__init__'
p22
S"<method-wrapper '__init__' of exceptions.IOError object>"
p23
sS'__setattr__'
p24
S"<method-wrapper '__setattr__' of exceptions.IOError object>"
p25
sS'__reduce_ex__'
p26
S'<built-in method __reduce_ex__ of exceptions.IOError object>'
p27
sS'__new__'
p28
S'<built-in method __new__ of type object>'
p29
sS'errno'
p30
S'2'
sS'__format__'
p31
S'<built-in method __format__ of exceptions.IOError object>'
p32
sS'__class__'
p33
S"<type 'exceptions.IOError'>"
p34
sS'filename'
p35
S"'/home/akshita/IIIT/II Year/III semester/SSAD/web...NOUVELLES_EN_LIGNE/views/layouts/web2py_ajax.html'"
p36
sS'__doc__'
p37
S"'I/O operation failed.'"
p38
sS'__getitem__'
p39
S"<method-wrapper '__getitem__' of exceptions.IOError object>"
p40
sS'__setstate__'
p41
S'<built-in method __setstate__ of exceptions.IOError object>'
p42
sS'__getattribute__'
p43
S"<method-wrapper '__getattribute__' of exceptions.IOError object>"
p44
sS'args'
p45
S"(2, 'No such file or directory')"
p46
sS'__subclasshook__'
p47
S'<built-in method __subclasshook__ of type object>'
p48
sS'__unicode__'
p49
S'<built-in method __unicode__ of exceptions.IOError object>'
p50
sS'strerror'
p51
S"'No such file or directory'"
p52
sS'__delattr__'
p53
S"<method-wrapper '__delattr__' of exceptions.IOError object>"
p54
sS'__repr__'
p55
S"<method-wrapper '__repr__' of exceptions.IOError object>"
p56
sS'__hash__'
p57
S"<method-wrapper '__hash__' of exceptions.IOError object>"
p58
ssS'evalue'
p59
S"[Errno 2] No such file or directory: '/home/akshita/IIIT/II Year/III semester/SSAD/web2py/applications/NOUVELLES_EN_LIGNE/views/layouts/web2py_ajax.html'"
p60
sS'frames'
p61
(lp62
(dp63
S'file'
p64
S'/home/akshita/IIIT/II Year/III semester/SSAD/web2py/gluon/template.py'
p65
sS'dump'
p66
(dp67
S'builtinopen'
p68
S'<built-in function open>'
p69
sS'fileobj'
p70
S'undefined'
p71
sS'filepath'
p72
S"'/home/akshita/IIIT/II Year/III semester/SSAD/web...NOUVELLES_EN_LIGNE/views/layouts/web2py_ajax.html'"
p73
ssS'lnum'
p74
I443
sS'lines'
p75
(dp76
I438
S'        # Get the path of the file on the system.'
p77
sI439
S'        filepath = self.path and os.path.join(self.path, filename) or filename'
p78
sI440
S''
sI441
S'        # try to read the text.'
p79
sI442
S'        try:'
p80
sI443
S"            fileobj = open(filepath, 'rb')"
p81
sI444
S'            text = fileobj.read()'
p82
sI445
S'            fileobj.close()'
p83
sI446
S'        except IOError:'
p84
sI447
S"            self._raise_error('Unable to open included view file: ' + filepath)"
p85
ssS'call'
p86
S"(self=<gluon.template.TemplateParser object>, filename='layouts/web2py_ajax.html')"
p87
sS'func'
p88
S'_get_file_text'
p89
sasS'pyver'
p90
S'Python 2.7.3: /usr/bin/python (prefix: /usr)'
p91
sS'etype'
p92
S"<type 'exceptions.IOError'>"
p93
sS'date'
p94
S'Fri Aug 30 00:30:44 2013'
p95
sS'locals'
p96
(dp97
S'self'
p98
S'<gluon.template.TemplateParser object>'
p99
sS'filepath'
p100
S"'/home/akshita/IIIT/II Year/III semester/SSAD/web...NOUVELLES_EN_LIGNE/views/layouts/web2py_ajax.html'"
p101
sS'context'
p102
S"{'A': <class 'gluon.html.A'>, 'ANY_OF': <class 'gluon.validators.ANY_OF'>, 'Auth': <class 'gluon.tools.Auth'>, 'B': <class 'gluon.html.B'>, 'BEAUTIFY': <class 'gluon.html.BEAUTIFY'>, 'BODY': <class 'gluon.html.BODY'>, 'BR': <class 'gluon.html.BR'>, 'BUTTON': <class 'gluon.html.BUTTON'>, 'CAT': <class 'gluon.html.CAT'>, 'CENTER': <class 'gluon.html.CENTER'>, ...}"
p103
sg35
S"'layouts/web2py_ajax.html'"
p104
sssS'traceback'
p105
S'Traceback (most recent call last):\n  File "/home/akshita/IIIT/II Year/III semester/SSAD/web2py/gluon/template.py", line 443, in _get_file_text\n    fileobj = open(filepath, \'rb\')\nIOError: [Errno 2] No such file or directory: \'/home/akshita/IIIT/II Year/III semester/SSAD/web2py/applications/NOUVELLES_EN_LIGNE/views/layouts/web2py_ajax.html\'\n'
p106
s.